
lab4.elf:     file format elf32-avr

Sections:
Idx Name          Size      VMA       LMA       File off  Algn
  0 .data         0000000e  00800100  00000c50  00000ce4  2**0
                  CONTENTS, ALLOC, LOAD, DATA
  1 .text         00000c50  00000000  00000000  00000094  2**1
                  CONTENTS, ALLOC, LOAD, READONLY, CODE
  2 .bss          00000007  0080010e  0080010e  00000cf2  2**0
                  ALLOC
  3 .stab         000020c4  00000000  00000000  00000cf4  2**2
                  CONTENTS, READONLY, DEBUGGING
  4 .stabstr      000011bb  00000000  00000000  00002db8  2**0
                  CONTENTS, READONLY, DEBUGGING
  5 .comment      00000011  00000000  00000000  00003f73  2**0
                  CONTENTS, READONLY
  6 .note.gnu.avr.deviceinfo 00000040  00000000  00000000  00003f84  2**2
                  CONTENTS, READONLY
  7 .debug_info   000005f4  00000000  00000000  00003fc4  2**0
                  CONTENTS, READONLY, DEBUGGING
  8 .debug_abbrev 000005a2  00000000  00000000  000045b8  2**0
                  CONTENTS, READONLY, DEBUGGING
  9 .debug_line   0000001a  00000000  00000000  00004b5a  2**0
                  CONTENTS, READONLY, DEBUGGING
 10 .debug_str    00000208  00000000  00000000  00004b74  2**0
                  CONTENTS, READONLY, DEBUGGING
Contents of section .data:
 800100 00000002 00000000 1d010000 0000      ..............  
Contents of section .text:
 0000 0c94fe00 0c941b01 0c941b01 0c941b01  ................
 0010 0c941b01 0c941b01 0c941b01 0c941b01  ................
 0020 0c941b01 0c941b01 0c941b01 0c941b01  ................
 0030 0c941b01 0c941b01 0c941b01 0c941b01  ................
 0040 0c941b01 0c941b01 0c941b01 0c941b01  ................
 0050 0c941b01 0c941b01 0c941b01 0c941b01  ................
 0060 0c941b01 0c941b01 8d017301 73017301  ..........s.s.s.
 0070 73017301 73017301 96017301 73017301  s.s.s.s...s.s.s.
 0080 73017301 73017301 9f017301 73017301  s.s.s.s...s.s.s.
 0090 73017301 73017301 a8017301 73017301  s.s.s.s...s.s.s.
 00a0 73017301 73017301 b1017301 73017301  s.s.s.s...s.s.s.
 00b0 73017301 73017301 ba017301 73017301  s.s.s.s...s.s.s.
 00c0 73017301 73017301 c3017301 73017301  s.s.s.s...s.s.s.
 00d0 73017301 73017301 cc017301 73017301  s.s.s.s...s.s.s.
 00e0 73017301 73017301 d5017301 73017301  s.s.s.s...s.s.s.
 00f0 73017301 73017301 de017301 73017301  s.s.s.s...s.s.s.
 0100 73017301 73017301 84012578 0a002578  s.s.s.s...%x..%x
 0110 0a002578 0a002578 0a003332 2d626974  ..%x..%x..32-bit
 0120 20536572 69616c20 4e756d62 65720a3a   Serial Number.:
 0130 20002578 0a004465 76696365 20434f44   .%x..Device COD
 0140 453a2000 25780a00 4d616e75 66617475  E: .%x..Manufatu
 0150 72652043 4f44453a 20004e2f 41202530  re CODE: .N/A %0
 0160 32580a00 4d522044 4154412b 522c204e  2X..MR DATA+R, N
 0170 414b0a00 4d522044 4154412b 522c2041  AK..MR DATA+R, A
 0180 434b0a00 4d522053 4c412b52 2c204e41  CK..MR SLA+R, NA
 0190 4b0a004d 5220534c 412b522c 2041434b  K..MR SLA+R, ACK
 01a0 0a004d54 20444154 412b572c 204e414b  ..MT DATA+W, NAK
 01b0 0a004d54 20444154 412b572c 2041434b  ..MT DATA+W, ACK
 01c0 0a004d54 20534c41 2b572c20 4e414b0a  ..MT SLA+W, NAK.
 01d0 004d5420 534c412b 572c2041 434b0a00  .MT SLA+W, ACK..
 01e0 4e4f4152 422f4e41 4b0a0052 45535441  NOARB/NAK..RESTA
 01f0 52540a00 53544152 540a0000 11241fbe  RT..START....$..
 0200 cfefd8e0 debfcdbf 11e0a0e0 b1e0e0e5  ................
 0210 fce002c0 05900d92 ae30b107 d9f721e0  .........0....!.
 0220 aee0b1e0 01c01d92 a531b207 e1f70e94  .........1......
 0230 b8020c94 26060c94 0000cf93 c82f8a30  ....&......../.0
 0240 51f08091 c00085ff fccfc093 c60080e0  Q...............
 0250 90e0cf91 089560e0 70e08de0 0e941d01  ......`.p.......
 0260 f0cf1092 c50089e1 8093c400 1092c000  ................
 0270 88e18093 c10086e0 8093c200 80e091e0  ................
 0280 90931201 80931101 08958091 c00087ff  ................
 0290 fccf8091 c6000895 0895ece7 f0e080e6  ................
 02a0 80838081 80838be8 80937a00 08958093  ..........z.....
 02b0 0e010895 80910e01 08950895 e9ebf0e0  ................
 02c0 80818083 80818160 808382e1 8093b800  .......`........
 02d0 84e08093 bc000895 482f50e0 fa013897  ........H/P...8.
 02e0 e135f105 68f01f92 8f938ae5 91e09f93  .5..h...........
 02f0 8f930e94 38030f90 0f900f90 0f900895  ....8...........
 0300 ec5cff4f 0c943203 84e691e0 9f938f93  .\.O..2.........
 0310 0e943803 0f900f90 089584ef 91e09f93  ..8.............
 0320 8f930e94 38030f90 0f900895 8bee91e0  ....8...........
 0330 9f938f93 0e943803 0f900f90 089581ed  ......8.........
 0340 91e09f93 8f930e94 38030f90 0f900895  ........8.......
 0350 82ec91e0 9f938f93 0e943803 0f900f90  ..........8.....
 0360 089582eb 91e09f93 8f930e94 38030f90  ............8...
 0370 0f900895 82ea91e0 9f938f93 0e943803  ..............8.
 0380 0f900f90 089580ee 91e09f93 8f930e94  ................
 0390 38030f90 0f900895 83e991e0 9f938f93  8...............
 03a0 0e943803 0f900f90 089584e8 91e09f93  ..8.............
 03b0 8f930e94 38030f90 0f900895 84e791e0  ....8...........
 03c0 9f938f93 0e943803 0f900f90 089584ea  ......8.........
 03d0 8093bc00 8091bc00 87fffccf 089584e9  ................
 03e0 8093bc00 8091bc00 84fdfccf 08958091  ................
 03f0 b900887f 08958e7f 6170682b 6093bb00  ........aph+`...
 0400 84e88093 bc008091 bc0087ff fccf0895  ................
 0410 8093bb00 84e88093 bc008091 bc0087ff  ................
 0420 fccf0895 84ec8093 bc008091 bc0087ff  ................
 0430 fccf8091 bb000895 84e88093 bc008091  ................
 0440 bc0087ff fccf8091 bb000895 34ea20ea  ............4. .
 0450 94e83093 bc008091 bc0087ff fccf2093  ..0........... .
 0460 bb009093 bc008091 bc0087ff fccff1cf  ................
 0470 94ea9093 bc009091 bc0097ff fccf90ea  ................
 0480 9093bb00 94e89093 bc009091 bc0097ff  ................
 0490 fccf8093 bb0084e8 8093bc00 8091bc00  ................
 04a0 87fffccf 84ea8093 bc008091 bc0087ff  ................
 04b0 fccf81ea 8093bb00 84e88093 bc008091  ................
 04c0 bc0087ff fccf84e8 8093bc00 8091bc00  ................
 04d0 87fffccf 8091bb00 94e99093 bc009091  ................
 04e0 bc0094fd fccf0895 d82fc62f 84ea8093  ........././....
 04f0 bc008091 bc0087ff fccf8091 b900887f  ................
 0500 0e946c01 80ea8093 bb0084e8 8093bc00  ..l.............
 0510 8091bc00 87fffccf 8091b900 887f0e94  ................
 0520 6c01d093 bb0084e8 8093bc00 8091bc00  l...............
 0530 87fffccf 8091b900 887f0e94 6c01c093  ............l...
 0540 bb0084e8 8093bc00 8091bc00 87fffccf  ................
 0550 8091b900 887f0e94 6c0184e9 8093bc00  ........l.......
 0560 8091bc00 84fdfccf 0e942602 08950895  ..........&.....
 0570 0e945e01 0e943101 789488e4 91e09f93  ..^...1.x.......
 0580 8f930e94 38038aef 0e943802 1f928f93  ....8.....8.....
 0590 84e491e0 9f938f93 0e943803 86e391e0  ..........8.....
 05a0 9f938f93 0e943803 8bef0e94 38021f92  ......8.....8...
 05b0 8f9382e3 91e09f93 8f930e94 38032fef  ............8./.
 05c0 81ee94e0 21508040 9040e1f7 00c00000  ....!P.@.@......
 05d0 8ae191e0 9f938f93 0e943803 8cef0e94  ..........8.....
 05e0 38021f92 8f9386e1 91e09f93 8f930e94  8...............
 05f0 38038def 0e943802 1f928f93 82e191e0  8.....8.........
 0600 9f938f93 0e943803 8eef0e94 38021f92  ......8.....8...
 0610 8f938ee0 91e09f93 8f930e94 38038fef  ............8...
 0620 0e943802 1f928f93 8ae091e0 9f938f93  ..8.............
 0630 0e943803 8db79eb7 4e960fb6 f8949ebf  ..8.....N.......
 0640 0fbe8dbf 0e94e701 0e94f701 0e946c01  ..............l.
 0650 9fef23ed 80e39150 20408040 e1f700c0  ..#....P @.@....
 0660 0000f0cf ee0fff1f 0590f491 e02d0994  .............-..
 0670 a0e0b0e0 eee3f3e0 0c94fd05 ae01495f  ..............I_
 0680 5f4fda01 6d917d91 ad010fe0 11e0f801  _O..m.}.........
 0690 82819381 dc011396 2c911397 28601396  ........,...(`..
 06a0 2c930e94 5e03d801 1296ed91 fc911397  ,...^...........
 06b0 2381277f 2383e4e0 0c941906 abe0b0e0  #.'.#...........
 06c0 e4e6f3e0 0c94ef05 6c017b01 8a01fc01  ........l.{.....
 06d0 17821682 838181ff ccc1ce01 01963c01  ..............<.
 06e0 f6019381 f70193fd 859193ff 81917f01  ................
 06f0 882309f4 bac18532 39f493fd 859193ff  .#.....29.......
 0700 81917f01 853229f4 b60190e0 0e945505  .....2).......U.
 0710 e7cf912c 212c312c ffe1f315 d8f08b32  ...,!,1,.......2
 0720 79f038f4 803279f0 8332a1f4 232d2061  y.8..2y..2..#- a
 0730 1dc08d32 61f08033 69f4232d 216016c0  ...2a..3i.#-!`..
 0740 832d8260 382ee32d e4603e2e 2ac0f32d  .-.`8..-.`>.*..-
 0750 f8601dc0 37fc2dc0 20ed280f 2a3040f0  .`..7.-. .(.*0@.
 0760 8e32b9f4 36fc81c1 232d2064 322e19c0  .2..6...#- d2...
 0770 36fe06c0 8ae0989e 200d1124 922e11c0  6....... ..$....
 0780 eae02e9e 200d1124 222ef32d f0623f2e  .... ..$"..-.b?.
 0790 08c08c36 21f4832d 8068382e 02c08836  ...6!..-.h8....6
 07a0 41f4f701 93fd8591 93ff8191 7f018111  A...............
 07b0 b3cf982f 9f7d9554 933028f4 0c5f1f4f  .../.}.T.0(.._.O
 07c0 9fe39983 0dc08336 31f08337 71f08335  .......61..7q..5
 07d0 09f059c0 21c0f801 80818983 0e5f1f4f  ..Y.!........_.O
 07e0 88248394 912c5301 13c02801 f2e04f0e  .$...,S...(...O.
 07f0 511cf801 a080b180 36fe03c0 692d70e0  Q.......6...i-p.
 0800 02c06fef 7fefc501 0e944a05 4c018201  ..o.......J.L...
 0810 f32dff77 3f2e16c0 280122e0 420e511c  .-.w?...(.".B.Q.
 0820 f801a080 b18036fe 03c0692d 70e002c0  ......6...i-p...
 0830 6fef7fef c5010e94 3f054c01 f32df068  o.......?.L..-.h
 0840 3f2e8201 33fc1bc0 822d90e0 88169906  ?...3....-......
 0850 b0f4b601 80e290e0 0e945505 2a94f4cf  ..........U.*...
 0860 f50137fc 859137fe 81915f01 b60190e0  ..7...7..._.....
 0870 0e945505 21102a94 21e0821a 91088114  ..U.!.*.!.......
 0880 910471f7 e8c08436 11f08936 41f5f801  ..q....6...6A...
 0890 37fe07c0 60817181 82819381 0c5f1f4f  7...`.q......_.O
 08a0 08c06081 7181072e 000c880b 990b0e5f  ..`.q.........._
 08b0 1f4ff32d ff763f2e 97ff09c0 90958095  .O.-.v?.........
 08c0 70956195 7f4f8f4f 9f4ff068 3f2e2ae0  p.a..O.O.O.h?.*.
 08d0 30e0a301 0e949105 882e8618 45c08537  0...........E..7
 08e0 31f4232d 2f7eb22e 2ae030e0 25c0932d  1.#-/~..*.0.%..-
 08f0 997fb92e 8f36c1f0 18f48835 79f0b5c0  .....6.....5y...
 0900 803719f0 883721f0 b0c0e92f e061be2e  .7...7!..../.a..
 0910 b4fe0dc0 fb2df460 bf2e09c0 34fe0ac0  .....-.`....4...
 0920 292f2660 b22e06c0 28e030e0 05c020e1  )/&`....(.0... .
 0930 30e002c0 20e132e0 f801b7fe 07c06081  0... .2.......`.
 0940 71818281 93810c5f 1f4f06c0 60817181  q......_.O..`.q.
 0950 80e090e0 0e5f1f4f a3010e94 9105882e  ....._.O........
 0960 8618fb2d ff773f2e 36fe0dc0 232d2e7f  ...-.w?.6...#-..
 0970 a22e8914 58f434fe 0bc032fc 09c0832d  ....X.4...2....-
 0980 8e7ea82e 05c0b82c a32c03c0 b82c01c0  .~.....,.,...,..
 0990 b92ca4fe 0fc0fe01 e80df11d 80818033  .,.............3
 09a0 21f49a2d 997ea92e 09c0a2fe 06c0b394  !..-.~..........
 09b0 b39404c0 8a2d8678 09f0b394 a3fc11c0  .....-.x........
 09c0 a0fe06c0 b21488f4 280c922c 9b180ec0  ........(..,....
 09d0 b21460f4 b60180e2 90e00e94 5505b394  ..`.........U...
 09e0 f7cfb214 18f42b18 02c0982c 212ca4fe  ......+....,!,..
 09f0 10c0b601 80e390e0 0e945505 a2fe17c0  ..........U.....
 0a00 a1fc03c0 88e790e0 02c088e5 90e0b601  ................
 0a10 0cc08a2d 867859f0 a1fe02c0 8be201c0  ...-.xY.........
 0a20 80e2a7fc 8de2b601 90e00e94 55058914  ............U...
 0a30 38f4b601 80e390e0 0e945505 9a94f7cf  8.........U.....
 0a40 8a94f301 e80df11d 8081b601 90e00e94  ................
 0a50 55058110 f5cf2220 09f442ce b60180e2  U....." ..B.....
 0a60 90e00e94 55052a94 f6cff601 86819781  ....U.*.........
 0a70 02c08fef 9fef2b96 e2e10c94 0b06fc01  ......+.........
 0a80 05906150 70400110 d8f78095 90958e0f  ..aPp@..........
 0a90 9f1f0895 fc016150 70400190 0110d8f7  ......aPp@......
 0aa0 80959095 8e0f9f1f 08950f93 1f93cf93  ................
 0ab0 df93fb01 238121fd 03c08fef 9fef2cc0  ....#.!.......,.
 0ac0 22ff16c0 46815781 24813581 42175307  "...F.W.$.5.B.S.
 0ad0 44f4a081 b1819d01 2f5f3f4f 31832083  D......./_?O1. .
 0ae0 8c932681 37812f5f 3f4f3783 268314c0  ..&.7./_?O7.&...
 0af0 8b01ec01 fb010084 f185e02d 0995892b  ...........-...+
 0b00 e1f6d801 16968d91 9c911797 01961796  ................
 0b10 9c938e93 1697ce01 df91cf91 1f910f91  ................
 0b20 0895fa01 aa272830 51f12031 81f1e894  .....'(0Q. 1....
 0b30 6f936e7f 6e5f7f4f 8f4f9f4f af4fb1e0  o.n.n_.O.O.O.O..
 0b40 3ed0b4e0 3cd0670f 781f891f 9a1fa11d  >...<.g.x.......
 0b50 680f791f 8a1f911d a11d6a0f 711d811d  h.y.......j.q...
 0b60 911da11d 20d009f4 68943f91 2ae0269f  .... ...h.?.*.&.
 0b70 11243019 305d3193 def6cf01 0895462f  .$0.0]1.......F/
 0b80 4770405d 4193b3e0 0fd0c9f7 f6cf462f  Gp@]A.........F/
 0b90 4f70405d 4a3318f0 495d31fd 40524193  Op@]J3..I]1.@RA.
 0ba0 02d0a9f7 eacfb4e0 a6959795 87957795  ..............w.
 0bb0 6795ba95 c9f70097 61057105 08959b01  g.......a.q.....
 0bc0 ac010a2e 06945795 47953795 2795ba95  ......W.G.7.'...
 0bd0 c9f7620f 731f841f 951fa01d 08952f92  ..b.s........./.
 0be0 3f924f92 5f926f92 7f928f92 9f92af92  ?.O._.o.........
 0bf0 bf92cf92 df92ef92 ff920f93 1f93cf93  ................
 0c00 df93cdb7 deb7ca1b db0b0fb6 f894debf  ................
 0c10 0fbecdbf 09942a88 39884888 5f846e84  ......*.9.H._.n.
 0c20 7d848c84 9b84aa84 b984c884 df80ee80  }...............
 0c30 fd800c81 1b81aa81 b981ce0f d11d0fb6  ................
 0c40 f894debf 0fbecdbf ed010895 f894ffcf  ................
Contents of section .stab:
 0000 01000000 0000ba02 bb110000 08000000  ................
 0010 64000200 3a020000 01000000 64000200  d...:.......d...
 0020 3a020000 65000000 3c000000 00000000  :...e...<.......
 0030 74000000 80000000 00000000 94000000  t...............
 0040 80000000 00000000 ae000000 80000000  ................
 0050 00000000 e5000000 80000000 00000000  ................
 0060 0b010000 80000000 00000000 40010000  ............@...
 0070 80000000 00000000 b8010000 80000000  ................
 0080 00000000 0e020000 80000000 00000000  ................
 0090 60020000 80000000 00000000 a5020000  `...............
 00a0 80000000 00000000 cd020000 80000000  ................
 00b0 00000000 fb020000 80000000 00000000  ................
 00c0 25030000 80000000 00000000 4e030000  %...........N...
 00d0 80000000 00000000 68030000 80000000  ........h.......
 00e0 00000000 83030000 80000000 00000000  ................
 00f0 a3030000 80000000 00000000 c4030000  ................
 0100 80000000 00000000 df030000 80000000  ................
 0110 00000000 ff030000 80000000 00000000  ................
 0120 24040000 80000000 00000000 4e040000  $...........N...
 0130 80000000 00000000 72040000 80000000  ........r.......
 0140 00000000 9b040000 80000000 00000000  ................
 0150 c9040000 80000000 00000000 ef040000  ................
 0160 80000000 00000000 0f050000 80000000  ................
 0170 00000000 34050000 80000000 00000000  ....4...........
 0180 5e050000 80000000 00000000 8d050000  ^...............
 0190 80000000 00000000 b6050000 80000000  ................
 01a0 00000000 e4050000 80000000 00000000  ................
 01b0 17060000 80000000 00000000 38060000  ............8...
 01c0 80000000 00000000 53060000 80000000  ........S.......
 01d0 00000000 73060000 80000000 00000000  ....s...........
 01e0 98060000 80000000 00000000 c2060000  ................
 01f0 80000000 00000000 e6060000 80000000  ................
 0200 00000000 0f070000 80000000 00000000  ................
 0210 3d070000 80000000 00000000 63070000  =...........c...
 0220 80000000 00000000 83070000 80000000  ................
 0230 00000000 a8070000 80000000 00000000  ................
 0240 d2070000 80000000 00000000 01080000  ................
 0250 80000000 00000000 2a080000 80000000  ........*.......
 0260 00000000 58080000 80000000 00000000  ....X...........
 0270 8b080000 80000000 00000000 9f080000  ................
 0280 82000000 00000000 c4080000 82000000  ................
 0290 00000000 e2080000 82000000 00000000  ................
 02a0 06090000 82000000 250f0000 26090000  ........%...&...
 02b0 82000000 00000000 4e090000 82000000  ........N.......
 02c0 3bb80000 6c090000 80007d00 00000000  ;...l.....}.....
 02d0 81090000 80007e00 00000000 97090000  ......~.........
 02e0 80007f00 00000000 ac090000 80008000  ................
 02f0 00000000 c2090000 80008100 00000000  ................
 0300 d7090000 80008200 00000000 ed090000  ................
 0310 80008400 00000000 020a0000 80008500  ................
 0320 00000000 180a0000 80009200 00000000  ................
 0330 2e0a0000 80009700 00000000 460a0000  ............F...
 0340 8000a300 00000000 610a0000 8000a800  ........a.......
 0350 00000000 7d0a0000 8000ad00 00000000  ....}...........
 0360 990a0000 8000b200 00000000 b60a0000  ................
 0370 8000b700 00000000 d20a0000 8000bc00  ................
 0380 00000000 ef0a0000 8000c400 00000000  ................
 0390 0b0b0000 8000cb00 00000000 280b0000  ............(...
 03a0 8000d900 00000000 420b0000 8000de00  ........B.......
 03b0 00000000 5d0b0000 8000e300 00000000  ....]...........
 03c0 780b0000 8000e800 00000000 940b0000  x...............
 03d0 8000ed00 00000000 af0b0000 8000f200  ................
 03e0 00000000 cb0b0000 8000fa00 00000000  ................
 03f0 e60b0000 80000101 00000000 020c0000  ................
 0400 80001501 00000000 190c0000 80001a01  ................
 0410 00000000 00000000 a2000000 00000000  ................
 0420 00000000 a2000000 00000000 310c0000  ............1...
 0430 80004d00 00000000 4b0c0000 80005100  ..M.....K.....Q.
 0440 00000000 00000000 a2000000 00000000  ................
 0450 00000000 a2000000 00000000 660c0000  ............f...
 0460 82000000 6e130000 860c0000 8000f400  ....n...........
 0470 00000000 00000000 a2000000 00000000  ................
 0480 00000000 a2000000 00000000 00000000  ................
 0490 a2000000 00000000 d40c0000 82000000  ................
 04a0 00000000 f80c0000 82000000 d8040000  ................
 04b0 200d0000 8000d800 00000000 00000000   ...............
 04c0 a2000000 00000000 00000000 a2000000  ................
 04d0 00000000 340d0000 82000000 85330000  ....4........3..
 04e0 510d0000 82000000 900e0000 790d0000  Q...........y...
 04f0 80002800 00000000 9f0d0000 80006200  ..(...........b.
 0500 00000000 00000000 a2000000 00000000  ................
 0510 b60d0000 80000000 00000000 800e0000  ................
 0520 80001501 00000000 940e0000 8000b603  ................
 0530 00000000 00000000 a2000000 00000000  ................
 0540 a90e0000 24000f00 70050000 00000000  ....$...p.......
 0550 2e000000 70050000 00000000 44000f00  ....p.......D...
 0560 00000000 00000000 44001100 00000000  ........D.......
 0570 00000000 44001200 04000000 00000000  ....D...........
 0580 44001400 08000000 00000000 44001900  D...........D...
 0590 0a000000 00000000 44001a00 16000000  ........D.......
 05a0 00000000 44001b00 1c000000 00000000  ....D...........
 05b0 44001d00 2c000000 00000000 44001e00  D...,.......D...
 05c0 38000000 00000000 44001f00 3e000000  8.......D...>...
 05d0 b60e0000 84000000 be050000 00000000  ................
 05e0 4400bb00 4e000000 01000000 84000000  D...N...........
 05f0 d0050000 00000000 44002300 60000000  ........D.#.`...
 0600 00000000 44002400 6c000000 00000000  ....D.$.l.......
 0610 44002500 72000000 00000000 44002700  D.%.r.......D.'.
 0620 82000000 00000000 44002800 88000000  ........D.(.....
 0630 00000000 44002a00 98000000 00000000  ....D.*.........
 0640 44002b00 9e000000 00000000 44002d00  D.+.........D.-.
 0650 ae000000 00000000 44002e00 b4000000  ........D.......
 0660 00000000 44003500 d4000000 00000000  ....D.5.........
 0670 44003600 d8000000 b60e0000 84000000  D.6.............
 0680 50060000 00000000 4400bb00 e0000000  P.......D.......
 0690 00000000 24000000 f4000000 00000000  ....$...........
 06a0 4e000000 64060000 00000000 64000000  N...d.......d...
 06b0 3a020000 08000000 64000200 3a020000  :.......d...:...
 06c0 d80e0000 64000200 3a020000 65000000  ....d...:...e...
 06d0 3c000000 00000000 74000000 80000000  <.......t.......
 06e0 00000000 94000000 80000000 00000000  ................
 06f0 ae000000 80000000 00000000 e5000000  ................
 0700 80000000 00000000 0b010000 80000000  ................
 0710 00000000 40010000 80000000 00000000  ....@...........
 0720 b8010000 80000000 00000000 0e020000  ................
 0730 80000000 00000000 60020000 80000000  ........`.......
 0740 00000000 a5020000 80000000 00000000  ................
 0750 cd020000 80000000 00000000 fb020000  ................
 0760 80000000 00000000 25030000 80000000  ........%.......
 0770 00000000 4e030000 80000000 00000000  ....N...........
 0780 68030000 80000000 00000000 83030000  h...............
 0790 80000000 00000000 a3030000 80000000  ................
 07a0 00000000 c4030000 80000000 00000000  ................
 07b0 df030000 80000000 00000000 ff030000  ................
 07c0 80000000 00000000 24040000 80000000  ........$.......
 07d0 00000000 4e040000 80000000 00000000  ....N...........
 07e0 72040000 80000000 00000000 9b040000  r...............
 07f0 80000000 00000000 c9040000 80000000  ................
 0800 00000000 ef040000 80000000 00000000  ................
 0810 0f050000 80000000 00000000 34050000  ............4...
 0820 80000000 00000000 5e050000 80000000  ........^.......
 0830 00000000 8d050000 80000000 00000000  ................
 0840 b6050000 80000000 00000000 e4050000  ................
 0850 80000000 00000000 17060000 80000000  ................
 0860 00000000 38060000 80000000 00000000  ....8...........
 0870 53060000 80000000 00000000 73060000  S...........s...
 0880 80000000 00000000 98060000 80000000  ................
 0890 00000000 c2060000 80000000 00000000  ................
 08a0 e6060000 80000000 00000000 0f070000  ................
 08b0 80000000 00000000 3d070000 80000000  ........=.......
 08c0 00000000 63070000 80000000 00000000  ....c...........
 08d0 83070000 80000000 00000000 a8070000  ................
 08e0 80000000 00000000 d2070000 80000000  ................
 08f0 00000000 01080000 80000000 00000000  ................
 0900 2a080000 80000000 00000000 58080000  *...........X...
 0910 80000000 00000000 8b080000 80000000  ................
 0920 00000000 c4080000 c2000000 00000000  ................
 0930 e2080000 c2000000 00000000 06090000  ................
 0940 c2000000 250f0000 26090000 c2000000  ....%...&.......
 0950 00000000 4e090000 c2000000 3bb80000  ....N.......;...
 0960 660c0000 c2000000 6e130000 340d0000  f.......n...4...
 0970 c2000000 85330000 510d0000 c2000000  .....3..Q.......
 0980 900e0000 f80c0000 c2000000 d8040000  ................
 0990 e10e0000 24001300 3a020000 f50e0000  ....$...:.......
 09a0 40001300 1c000000 000f0000 40001300  @...........@...
 09b0 16000000 00000000 2e000000 3a020000  ............:...
 09c0 00000000 44001300 00000000 00000000  ....D...........
 09d0 44001400 04000000 00000000 44001700  D...........D...
 09e0 08000000 00000000 44001900 10000000  ........D.......
 09f0 00000000 44001b00 14000000 00000000  ....D...........
 0a00 44001500 1c000000 00000000 24000000  D...........$...
 0a10 28000000 00000000 4e000000 62020000  (.......N...b...
 0a20 160f0000 24000900 62020000 00000000  ....$...b.......
 0a30 2e000000 62020000 00000000 44000900  ....b.......D...
 0a40 00000000 00000000 44000a00 00000000  ........D.......
 0a50 00000000 44000b00 04000000 00000000  ....D...........
 0a60 44000c00 0a000000 00000000 44000d00  D...........D...
 0a70 0e000000 00000000 44000e00 14000000  ........D.......
 0a80 00000000 44001000 1a000000 00000000  ....D...........
 0a90 24000000 28000000 00000000 4e000000  $...(.......N...
 0aa0 8a020000 280f0000 24001d00 8a020000  ....(...$.......
 0ab0 00000000 2e000000 8a020000 00000000  ................
 0ac0 44001d00 00000000 00000000 44001e00  D...........D...
 0ad0 00000000 00000000 44002000 08000000  ........D. .....
 0ae0 00000000 44002100 0c000000 00000000  ....D.!.........
 0af0 24000000 0e000000 00000000 4e000000  $...........N...
 0b00 98020000 3c0f0000 26000700 00018000  ....<...&.......
 0b10 00000000 64000000 98020000 08000000  ....d...........
 0b20 64000200 98020000 4f0f0000 64000200  d.......O...d...
 0b30 98020000 65000000 3c000000 00000000  ....e...<.......
 0b40 74000000 80000000 00000000 94000000  t...............
 0b50 80000000 00000000 ae000000 80000000  ................
 0b60 00000000 e5000000 80000000 00000000  ................
 0b70 0b010000 80000000 00000000 40010000  ............@...
 0b80 80000000 00000000 b8010000 80000000  ................
 0b90 00000000 0e020000 80000000 00000000  ................
 0ba0 60020000 80000000 00000000 a5020000  `...............
 0bb0 80000000 00000000 cd020000 80000000  ................
 0bc0 00000000 fb020000 80000000 00000000  ................
 0bd0 25030000 80000000 00000000 4e030000  %...........N...
 0be0 80000000 00000000 68030000 80000000  ........h.......
 0bf0 00000000 83030000 80000000 00000000  ................
 0c00 a3030000 80000000 00000000 c4030000  ................
 0c10 80000000 00000000 df030000 80000000  ................
 0c20 00000000 ff030000 80000000 00000000  ................
 0c30 24040000 80000000 00000000 4e040000  $...........N...
 0c40 80000000 00000000 72040000 80000000  ........r.......
 0c50 00000000 9b040000 80000000 00000000  ................
 0c60 c9040000 80000000 00000000 ef040000  ................
 0c70 80000000 00000000 0f050000 80000000  ................
 0c80 00000000 34050000 80000000 00000000  ....4...........
 0c90 5e050000 80000000 00000000 8d050000  ^...............
 0ca0 80000000 00000000 b6050000 80000000  ................
 0cb0 00000000 e4050000 80000000 00000000  ................
 0cc0 17060000 80000000 00000000 38060000  ............8...
 0cd0 80000000 00000000 53060000 80000000  ........S.......
 0ce0 00000000 73060000 80000000 00000000  ....s...........
 0cf0 98060000 80000000 00000000 c2060000  ................
 0d00 80000000 00000000 e6060000 80000000  ................
 0d10 00000000 0f070000 80000000 00000000  ................
 0d20 3d070000 80000000 00000000 63070000  =...........c...
 0d30 80000000 00000000 83070000 80000000  ................
 0d40 00000000 a8070000 80000000 00000000  ................
 0d50 d2070000 80000000 00000000 01080000  ................
 0d60 80000000 00000000 2a080000 80000000  ........*.......
 0d70 00000000 58080000 80000000 00000000  ....X...........
 0d80 8b080000 80000000 00000000 c4080000  ................
 0d90 c2000000 00000000 e2080000 c2000000  ................
 0da0 00000000 06090000 c2000000 250f0000  ............%...
 0db0 26090000 c2000000 00000000 4e090000  &...........N...
 0dc0 c2000000 3bb80000 660c0000 c2000000  ....;...f.......
 0dd0 6e130000 d40c0000 c2000000 00000000  n...............
 0de0 f80c0000 c2000000 d8040000 340d0000  ............4...
 0df0 c2000000 85330000 510d0000 c2000000  .....3..Q.......
 0e00 900e0000 560f0000 24000700 98020000  ....V...$.......
 0e10 00000000 2e000000 98020000 00000000  ................
 0e20 44000700 00000000 00000000 24000000  D...........$...
 0e30 02000000 00000000 4e000000 9a020000  ........N.......
 0e40 00000000 64000000 9a020000 08000000  ....d...........
 0e50 64000200 9a020000 680f0000 64000200  d.......h...d...
 0e60 9a020000 65000000 3c000000 00000000  ....e...<.......
 0e70 74000000 80000000 00000000 94000000  t...............
 0e80 80000000 00000000 ae000000 80000000  ................
 0e90 00000000 e5000000 80000000 00000000  ................
 0ea0 0b010000 80000000 00000000 40010000  ............@...
 0eb0 80000000 00000000 b8010000 80000000  ................
 0ec0 00000000 0e020000 80000000 00000000  ................
 0ed0 60020000 80000000 00000000 a5020000  `...............
 0ee0 80000000 00000000 cd020000 80000000  ................
 0ef0 00000000 fb020000 80000000 00000000  ................
 0f00 25030000 80000000 00000000 4e030000  %...........N...
 0f10 80000000 00000000 68030000 80000000  ........h.......
 0f20 00000000 83030000 80000000 00000000  ................
 0f30 a3030000 80000000 00000000 c4030000  ................
 0f40 80000000 00000000 df030000 80000000  ................
 0f50 00000000 ff030000 80000000 00000000  ................
 0f60 24040000 80000000 00000000 4e040000  $...........N...
 0f70 80000000 00000000 72040000 80000000  ........r.......
 0f80 00000000 9b040000 80000000 00000000  ................
 0f90 c9040000 80000000 00000000 ef040000  ................
 0fa0 80000000 00000000 0f050000 80000000  ................
 0fb0 00000000 34050000 80000000 00000000  ....4...........
 0fc0 5e050000 80000000 00000000 8d050000  ^...............
 0fd0 80000000 00000000 b6050000 80000000  ................
 0fe0 00000000 e4050000 80000000 00000000  ................
 0ff0 17060000 80000000 00000000 38060000  ............8...
 1000 80000000 00000000 53060000 80000000  ........S.......
 1010 00000000 73060000 80000000 00000000  ....s...........
 1020 98060000 80000000 00000000 c2060000  ................
 1030 80000000 00000000 e6060000 80000000  ................
 1040 00000000 0f070000 80000000 00000000  ................
 1050 3d070000 80000000 00000000 63070000  =...........c...
 1060 80000000 00000000 83070000 80000000  ................
 1070 00000000 a8070000 80000000 00000000  ................
 1080 d2070000 80000000 00000000 01080000  ................
 1090 80000000 00000000 2a080000 80000000  ........*.......
 10a0 00000000 58080000 80000000 00000000  ....X...........
 10b0 8b080000 80000000 00000000 c4080000  ................
 10c0 c2000000 00000000 e2080000 c2000000  ................
 10d0 00000000 06090000 c2000000 250f0000  ............%...
 10e0 26090000 c2000000 00000000 4e090000  &...........N...
 10f0 c2000000 3bb80000 660c0000 c2000000  ....;...f.......
 1100 6e130000 6e0f0000 24000600 9a020000  n...n...$.......
 1110 00000000 2e000000 9a020000 00000000  ................
 1120 44000600 00000000 00000000 44000c00  D...........D...
 1130 00000000 00000000 44000d00 08000000  ........D.......
 1140 00000000 44001400 0c000000 00000000  ....D...........
 1150 24000000 14000000 00000000 4e000000  $...........N...
 1160 ae020000 7f0f0000 24001700 ae020000  ........$.......
 1170 950f0000 40001700 18000000 00000000  ....@...........
 1180 2e000000 ae020000 00000000 44001700  ............D...
 1190 00000000 00000000 44001800 00000000  ........D.......
 11a0 00000000 24000000 06000000 00000000  ....$...........
 11b0 4e000000 b4020000 a00f0000 24001b00  N...........$...
 11c0 b4020000 00000000 2e000000 b4020000  ................
 11d0 00000000 44001b00 00000000 00000000  ....D...........
 11e0 44001c00 00000000 00000000 44001d00  D...........D...
 11f0 04000000 00000000 24000000 06000000  ........$.......
 1200 00000000 4e000000 ba020000 b50f0000  ....N...........
 1210 26000400 0e018000 00000000 64000000  &...........d...
 1220 ba020000 08000000 64000200 ba020000  ........d.......
 1230 ce0f0000 64000200 ba020000 65000000  ....d.......e...
 1240 3c000000 00000000 74000000 80000000  <.......t.......
 1250 00000000 94000000 80000000 00000000  ................
 1260 ae000000 80000000 00000000 e5000000  ................
 1270 80000000 00000000 0b010000 80000000  ................
 1280 00000000 40010000 80000000 00000000  ....@...........
 1290 b8010000 80000000 00000000 0e020000  ................
 12a0 80000000 00000000 60020000 80000000  ........`.......
 12b0 00000000 a5020000 80000000 00000000  ................
 12c0 cd020000 80000000 00000000 fb020000  ................
 12d0 80000000 00000000 25030000 80000000  ........%.......
 12e0 00000000 4e030000 80000000 00000000  ....N...........
 12f0 68030000 80000000 00000000 83030000  h...............
 1300 80000000 00000000 a3030000 80000000  ................
 1310 00000000 c4030000 80000000 00000000  ................
 1320 df030000 80000000 00000000 ff030000  ................
 1330 80000000 00000000 24040000 80000000  ........$.......
 1340 00000000 4e040000 80000000 00000000  ....N...........
 1350 72040000 80000000 00000000 9b040000  r...............
 1360 80000000 00000000 c9040000 80000000  ................
 1370 00000000 ef040000 80000000 00000000  ................
 1380 0f050000 80000000 00000000 34050000  ............4...
 1390 80000000 00000000 5e050000 80000000  ........^.......
 13a0 00000000 8d050000 80000000 00000000  ................
 13b0 b6050000 80000000 00000000 e4050000  ................
 13c0 80000000 00000000 17060000 80000000  ................
 13d0 00000000 38060000 80000000 00000000  ....8...........
 13e0 53060000 80000000 00000000 73060000  S...........s...
 13f0 80000000 00000000 98060000 80000000  ................
 1400 00000000 c2060000 80000000 00000000  ................
 1410 e6060000 80000000 00000000 0f070000  ................
 1420 80000000 00000000 3d070000 80000000  ........=.......
 1430 00000000 63070000 80000000 00000000  ....c...........
 1440 83070000 80000000 00000000 a8070000  ................
 1450 80000000 00000000 d2070000 80000000  ................
 1460 00000000 01080000 80000000 00000000  ................
 1470 2a080000 80000000 00000000 58080000  *...........X...
 1480 80000000 00000000 8b080000 80000000  ................
 1490 00000000 c4080000 c2000000 00000000  ................
 14a0 e2080000 c2000000 00000000 06090000  ................
 14b0 c2000000 250f0000 26090000 c2000000  ....%...&.......
 14c0 00000000 4e090000 c2000000 3bb80000  ....N.......;...
 14d0 660c0000 c2000000 6e130000 d60f0000  f.......n.......
 14e0 24000500 ba020000 00000000 2e000000  $...............
 14f0 ba020000 00000000 44000500 00000000  ........D.......
 1500 00000000 24000000 02000000 00000000  ....$...........
 1510 4e000000 bc020000 00000000 64000000  N...........d...
 1520 bc020000 08000000 64000200 bc020000  ........d.......
 1530 e90f0000 64000200 bc020000 65000000  ....d.......e...
 1540 3c000000 00000000 74000000 80000000  <.......t.......
 1550 00000000 94000000 80000000 00000000  ................
 1560 ae000000 80000000 00000000 e5000000  ................
 1570 80000000 00000000 0b010000 80000000  ................
 1580 00000000 40010000 80000000 00000000  ....@...........
 1590 b8010000 80000000 00000000 0e020000  ................
 15a0 80000000 00000000 60020000 80000000  ........`.......
 15b0 00000000 a5020000 80000000 00000000  ................
 15c0 cd020000 80000000 00000000 fb020000  ................
 15d0 80000000 00000000 25030000 80000000  ........%.......
 15e0 00000000 4e030000 80000000 00000000  ....N...........
 15f0 68030000 80000000 00000000 83030000  h...............
 1600 80000000 00000000 a3030000 80000000  ................
 1610 00000000 c4030000 80000000 00000000  ................
 1620 df030000 80000000 00000000 ff030000  ................
 1630 80000000 00000000 24040000 80000000  ........$.......
 1640 00000000 4e040000 80000000 00000000  ....N...........
 1650 72040000 80000000 00000000 9b040000  r...............
 1660 80000000 00000000 c9040000 80000000  ................
 1670 00000000 ef040000 80000000 00000000  ................
 1680 0f050000 80000000 00000000 34050000  ............4...
 1690 80000000 00000000 5e050000 80000000  ........^.......
 16a0 00000000 8d050000 80000000 00000000  ................
 16b0 b6050000 80000000 00000000 e4050000  ................
 16c0 80000000 00000000 17060000 80000000  ................
 16d0 00000000 38060000 80000000 00000000  ....8...........
 16e0 53060000 80000000 00000000 73060000  S...........s...
 16f0 80000000 00000000 98060000 80000000  ................
 1700 00000000 c2060000 80000000 00000000  ................
 1710 e6060000 80000000 00000000 0f070000  ................
 1720 80000000 00000000 3d070000 80000000  ........=.......
 1730 00000000 63070000 80000000 00000000  ....c...........
 1740 83070000 80000000 00000000 a8070000  ................
 1750 80000000 00000000 d2070000 80000000  ................
 1760 00000000 01080000 80000000 00000000  ................
 1770 2a080000 80000000 00000000 58080000  *...........X...
 1780 80000000 00000000 8b080000 80000000  ................
 1790 00000000 c4080000 c2000000 00000000  ................
 17a0 e2080000 c2000000 00000000 06090000  ................
 17b0 c2000000 250f0000 26090000 c2000000  ....%...&.......
 17c0 00000000 4e090000 c2000000 3bb80000  ....N.......;...
 17d0 660c0000 c2000000 6e130000 d40c0000  f.......n.......
 17e0 c2000000 00000000 f80c0000 c2000000  ................
 17f0 d8040000 340d0000 c2000000 85330000  ....4........3..
 1800 510d0000 c2000000 900e0000 ef0f0000  Q...............
 1810 24000c00 bc020000 00000000 2e000000  $...............
 1820 bc020000 00000000 44000c00 00000000  ........D.......
 1830 00000000 44001200 00000000 00000000  ....D...........
 1840 44001300 08000000 00000000 44001500  D...........D...
 1850 0e000000 00000000 44001700 14000000  ........D.......
 1860 00000000 24000000 1c000000 00000000  ....$...........
 1870 4e000000 d8020000 00100000 24001a00  N...........$...
 1880 d8020000 1e100000 40001a00 18000000  ........@.......
 1890 00000000 2e000000 d8020000 00000000  ................
 18a0 44001a00 00000000 00000000 44001b00  D...........D...
 18b0 00000000 00000000 44004000 0e000000  ........D.@.....
 18c0 00000000 44004100 1e000000 00000000  ....D.A.........
 18d0 44001b00 28000000 00000000 44003d00  D...(.......D.=.
 18e0 30000000 00000000 44003e00 3c000000  0.......D.>.<...
 18f0 00000000 44001d00 42000000 00000000  ....D...B.......
 1900 44001e00 4e000000 00000000 44002000  D...N.......D. .
 1910 54000000 00000000 44002100 60000000  T.......D.!.`...
 1920 00000000 44002700 66000000 00000000  ....D.'.f.......
 1930 44002800 72000000 00000000 44002a00  D.(.r.......D.*.
 1940 78000000 00000000 44002b00 84000000  x.......D.+.....
 1950 00000000 44002d00 8a000000 00000000  ....D.-.........
 1960 44002e00 96000000 00000000 44003000  D...........D.0.
 1970 9c000000 00000000 44003100 a8000000  ........D.1.....
 1980 00000000 44002300 ae000000 00000000  ....D.#.........
 1990 44002400 ba000000 00000000 44003400  D.$.........D.4.
 19a0 c0000000 00000000 44003500 cc000000  ........D.5.....
 19b0 00000000 44003700 d2000000 00000000  ....D.7.........
 19c0 44003800 de000000 00000000 44003a00  D.8.........D.:.
 19d0 e4000000 00000000 44003b00 f0000000  ........D.;.....
 19e0 00000000 24000000 f6000000 00000000  ....$...........
 19f0 4e000000 ce030000 2c100000 24004800  N.......,...$.H.
 1a00 ce030000 00000000 2e000000 ce030000  ................
 1a10 00000000 44004800 00000000 00000000  ....D.H.........
 1a20 44004900 00000000 00000000 44004a00  D.I.........D.J.
 1a30 06000000 00000000 44004b00 0e000000  ........D.K.....
 1a40 00000000 24000000 10000000 00000000  ....$...........
 1a50 4e000000 de030000 3e100000 24004e00  N.......>...$.N.
 1a60 de030000 00000000 2e000000 de030000  ................
 1a70 00000000 44004e00 00000000 00000000  ....D.N.........
 1a80 44004f00 00000000 00000000 44005100  D.O.........D.Q.
 1a90 06000000 00000000 44005200 0e000000  ........D.R.....
 1aa0 00000000 24000000 10000000 00000000  ....$...........
 1ab0 4e000000 ee030000 4f100000 24005500  N.......O...$.U.
 1ac0 ee030000 00000000 2e000000 ee030000  ................
 1ad0 00000000 44005500 00000000 00000000  ....D.U.........
 1ae0 44005800 00000000 00000000 44005a00  D.X.........D.Z.
 1af0 04000000 00000000 24000000 08000000  ........$.......
 1b00 00000000 4e000000 f6030000 65100000  ....N.......e...
 1b10 24005d00 f6030000 7b100000 40005d00  $.].....{...@.].
 1b20 18000000 8a100000 40005d00 16000000  ........@.].....
 1b30 00000000 2e000000 f6030000 00000000  ................
 1b40 44005d00 00000000 00000000 44005e00  D.].........D.^.
 1b50 00000000 00000000 44005f00 0a000000  ........D._.....
 1b60 00000000 44006000 10000000 00000000  ....D.`.........
 1b70 44006100 18000000 00000000 24000000  D.a.........$...
 1b80 1a000000 00000000 4e000000 10040000  ........N.......
 1b90 94100000 24006400 10040000 aa100000  ....$.d.........
 1ba0 40006400 18000000 00000000 2e000000  @.d.............
 1bb0 10040000 00000000 44006400 00000000  ........D.d.....
 1bc0 00000000 44006500 00000000 00000000  ....D.e.........
 1bd0 44006600 04000000 00000000 44006700  D.f.........D.g.
 1be0 0a000000 00000000 44006800 12000000  ........D.h.....
 1bf0 00000000 24000000 14000000 00000000  ....$...........
 1c00 4e000000 24040000 b6100000 24006b00  N...$.......$.k.
 1c10 24040000 00000000 2e000000 24040000  $...........$...
 1c20 00000000 44006b00 00000000 00000000  ....D.k.........
 1c30 44006c00 00000000 00000000 44006d00  D.l.........D.m.
 1c40 06000000 00000000 44006e00 0e000000  ........D.n.....
 1c50 00000000 44006f00 12000000 00000000  ....D.o.........
 1c60 24000000 14000000 00000000 4e000000  $...........N...
 1c70 38040000 ca100000 24007200 38040000  8.......$.r.8...
 1c80 00000000 2e000000 38040000 00000000  ........8.......
 1c90 44007200 00000000 00000000 44007300  D.r.........D.s.
 1ca0 00000000 00000000 44007400 06000000  ........D.t.....
 1cb0 00000000 44007500 0e000000 00000000  ....D.u.........
 1cc0 44007600 12000000 00000000 24000000  D.v.........$...
 1cd0 14000000 00000000 4e000000 4c040000  ........N...L...
 1ce0 de100000 24007800 4c040000 00000000  ....$.x.L.......
 1cf0 2e000000 4c040000 00000000 44007800  ....L.......D.x.
 1d00 00000000 00000000 44004900 00000000  ........D.I.....
 1d10 00000000 44005e00 02000000 00000000  ....D.^.........
 1d20 44005f00 04000000 00000000 44004900  D._.........D.I.
 1d30 06000000 00000000 44004a00 0a000000  ........D.J.....
 1d40 00000000 44005e00 12000000 00000000  ....D.^.........
 1d50 44005f00 16000000 00000000 44006000  D._.........D.`.
 1d60 1a000000 00000000 24000000 24000000  ........$...$...
 1d70 00000000 4e000000 70040000 07110000  ....N...p.......
 1d80 24008000 70040000 1f110000 40008000  $...p.......@...
 1d90 18000000 00000000 2e000000 70040000  ............p...
 1da0 00000000 44008000 00000000 00000000  ....D...........
 1db0 44004900 00000000 00000000 44004a00  D.I.........D.J.
 1dc0 06000000 00000000 44005e00 0e000000  ........D.^.....
 1dd0 00000000 44005f00 14000000 00000000  ....D._.........
 1de0 44006000 1a000000 00000000 44006500  D.`.........D.e.
 1df0 22000000 00000000 44006600 26000000  ".......D.f.&...
 1e00 00000000 44006700 2c000000 00000000  ....D.g.,.......
 1e10 44004900 34000000 00000000 44004a00  D.I.4.......D.J.
 1e20 3a000000 00000000 44005e00 42000000  :.......D.^.B...
 1e30 00000000 44005f00 48000000 00000000  ....D._.H.......
 1e40 44006000 4e000000 00000000 44007300  D.`.N.......D.s.
 1e50 56000000 00000000 44007400 5c000000  V.......D.t.\...
 1e60 00000000 44007500 64000000 00000000  ....D.u.d.......
 1e70 44004f00 68000000 00000000 44005100  D.O.h.......D.Q.
 1e80 6e000000 00000000 44009700 76000000  n.......D...v...
 1e90 00000000 24000000 78000000 00000000  ....$...x.......
 1ea0 4e000000 e8040000 2b110000 24009900  N.......+...$...
 1eb0 e8040000 1f110000 40009900 1d000000  ........@.......
 1ec0 aa100000 40009900 1c000000 00000000  ....@...........
 1ed0 2e000000 e8040000 00000000 44009900  ............D...
 1ee0 00000000 00000000 44004900 04000000  ........D.I.....
 1ef0 00000000 44004a00 0a000000 00000000  ....D.J.........
 1f00 44005800 12000000 00000000 44009d00  D.X.........D...
 1f10 16000000 00000000 44005e00 1c000000  ........D.^.....
 1f20 00000000 44005f00 22000000 00000000  ....D._.".......
 1f30 44006000 28000000 00000000 44005800  D.`.(.......D.X.
 1f40 30000000 00000000 4400a200 34000000  0.......D...4...
 1f50 00000000 44006500 3a000000 00000000  ....D.e.:.......
 1f60 44006600 3e000000 00000000 44006700  D.f.>.......D.g.
 1f70 44000000 00000000 44005800 4c000000  D.......D.X.L...
 1f80 00000000 4400a600 50000000 00000000  ....D...P.......
 1f90 44006500 56000000 00000000 44006600  D.e.V.......D.f.
 1fa0 5a000000 00000000 44006700 60000000  Z.......D.g.`...
 1fb0 00000000 44005800 68000000 00000000  ....D.X.h.......
 1fc0 4400aa00 6c000000 00000000 44004f00  D...l.......D.O.
 1fd0 72000000 00000000 44005100 78000000  r.......D.Q.x...
 1fe0 00000000 4400b000 80000000 00000000  ....D...........
 1ff0 24000000 84000000 00000000 4e000000  $...........N...
 2000 6c050000 45110000 2400b500 6c050000  l...E...$...l...
 2010 1f110000 4000b500 18000000 5f110000  ....@......._...
 2020 4000b500 16000000 00000000 2e000000  @...............
 2030 6c050000 00000000 4400b500 00000000  l.......D.......
 2040 00000000 24000000 02000000 00000000  ....$...........
 2050 4e000000 6e050000 73110000 2400ba00  N...n...s...$...
 2060 6e050000 92110000 4000ba00 18000000  n.......@.......
 2070 9e110000 4000ba00 16000000 b0110000  ....@...........
 2080 4000ba00 14000000 00000000 2e000000  @...............
 2090 6e050000 00000000 4400ba00 00000000  n.......D.......
 20a0 00000000 24000000 02000000 00000000  ....$...........
 20b0 4e000000 70050000 00000000 64000000  N...p.......d...
 20c0 70050000                             p...            
Contents of section .stabstr:
 0000 006d6169 6e2e6300 2f6d6e74 2f632f55  .main.c./mnt/c/U
 0010 73657273 2f61736d 616b2f41 736d6145  sers/asmak/AsmaE
 0020 64752f42 75696c74 496e5379 7374656d  du/BuiltInSystem
 0030 41726368 69746563 74757265 4e646573  ArchitectureNdes
 0040 69676e2f 6c61622d 30345f62 6173656c  ign/lab-04_basel
 0050 696e652f 6c61622d 30345f62 6173656c  ine/lab-04_basel
 0060 696e652f 00676363 325f636f 6d70696c  ine/.gcc2_compil
 0070 65642e00 696e743a 7428302c 31293d72  ed..int:t(0,1)=r
 0080 28302c31 293b2d33 32373638 3b333237  (0,1);-32768;327
 0090 36373b00 63686172 3a742830 2c32293d  67;.char:t(0,2)=
 00a0 7228302c 32293b30 3b313237 3b006c6f  r(0,2);0;127;.lo
 00b0 6e672069 6e743a74 28302c33 293d4073  ng int:t(0,3)=@s
 00c0 33323b72 28302c33 293b3032 30303030  32;r(0,3);020000
 00d0 30303030 30303b30 31373737 37373737  000000;017777777
 00e0 3737373b 00756e73 69676e65 6420696e  777;.unsigned in
 00f0 743a7428 302c3429 3d722830 2c34293b  t:t(0,4)=r(0,4);
 0100 303b3031 37373737 373b006c 6f6e6720  0;0177777;.long 
 0110 756e7369 676e6564 20696e74 3a742830  unsigned int:t(0
 0120 2c35293d 40733332 3b722830 2c35293b  ,5)=@s32;r(0,5);
 0130 303b3033 37373737 37373737 37373b00  0;037777777777;.
 0140 5f5f696e 74313238 3a742830 2c36293d  __int128:t(0,6)=
 0150 40733132 383b7228 302c3629 3b303230  @s128;r(0,6);020
 0160 30303030 30303030 30303030 30303030  0000000000000000
 0170 30303030 30303030 30303030 30303030  0000000000000000
 0180 30303030 30303030 303b3031 37373737  000000000;017777
 0190 37373737 37373737 37373737 37373737  7777777777777777
 01a0 37373737 37373737 37373737 37373737  7777777777777777
 01b0 37373737 37373b00 5f5f696e 74313238  777777;.__int128
 01c0 20756e73 69676e65 643a7428 302c3729   unsigned:t(0,7)
 01d0 3d407331 32383b72 28302c37 293b303b  =@s128;r(0,7);0;
 01e0 30333737 37373737 37373737 37373737  0377777777777777
 01f0 37373737 37373737 37373737 37373737  7777777777777777
 0200 37373737 37373737 37373737 3b006c6f  777777777777;.lo
 0210 6e67206c 6f6e6720 696e743a 7428302c  ng long int:t(0,
 0220 38293d40 7336343b 7228302c 38293b30  8)=@s64;r(0,8);0
 0230 31303030 30303030 30303030 30303030  1000000000000000
 0240 30303030 30303b30 30373737 37373737  000000;007777777
 0250 37373737 37373737 37373737 37373b00  77777777777777;.
 0260 6c6f6e67 206c6f6e 6720756e 7369676e  long long unsign
 0270 65642069 6e743a74 28302c39 293d4073  ed int:t(0,9)=@s
 0280 36343b72 28302c39 293b303b 30313737  64;r(0,9);0;0177
 0290 37373737 37373737 37373737 37373737  7777777777777777
 02a0 3737373b 0073686f 72742069 6e743a74  777;.short int:t
 02b0 28302c31 30293d72 28302c31 30293b2d  (0,10)=r(0,10);-
 02c0 33323736 383b3332 3736373b 0073686f  32768;32767;.sho
 02d0 72742075 6e736967 6e656420 696e743a  rt unsigned int:
 02e0 7428302c 3131293d 7228302c 3131293b  t(0,11)=r(0,11);
 02f0 303b3031 37373737 373b0073 69676e65  0;0177777;.signe
 0300 64206368 61723a74 28302c31 32293d40  d char:t(0,12)=@
 0310 73383b72 28302c31 32293b2d 3132383b  s8;r(0,12);-128;
 0320 3132373b 00756e73 69676e65 64206368  127;.unsigned ch
 0330 61723a74 28302c31 33293d40 73383b72  ar:t(0,13)=@s8;r
 0340 28302c31 33293b30 3b323535 3b00666c  (0,13);0;255;.fl
 0350 6f61743a 7428302c 3134293d 7228302c  oat:t(0,14)=r(0,
 0360 31293b34 3b303b00 646f7562 6c653a74  1);4;0;.double:t
 0370 28302c31 35293d72 28302c31 293b343b  (0,15)=r(0,1);4;
 0380 303b006c 6f6e6720 646f7562 6c653a74  0;.long double:t
 0390 28302c31 36293d72 28302c31 293b343b  (0,16)=r(0,1);4;
 03a0 303b0073 686f7274 205f4672 6163743a  0;.short _Fract:
 03b0 7428302c 3137293d 7228302c 31293b31  t(0,17)=r(0,1);1
 03c0 3b303b00 5f467261 63743a74 28302c31  ;0;._Fract:t(0,1
 03d0 38293d72 28302c31 293b323b 303b006c  8)=r(0,1);2;0;.l
 03e0 6f6e6720 5f467261 63743a74 28302c31  ong _Fract:t(0,1
 03f0 39293d72 28302c31 293b343b 303b006c  9)=r(0,1);4;0;.l
 0400 6f6e6720 6c6f6e67 205f4672 6163743a  ong long _Fract:
 0410 7428302c 3230293d 7228302c 31293b38  t(0,20)=r(0,1);8
 0420 3b303b00 756e7369 676e6564 2073686f  ;0;.unsigned sho
 0430 7274205f 46726163 743a7428 302c3231  rt _Fract:t(0,21
 0440 293d7228 302c3129 3b313b30 3b00756e  )=r(0,1);1;0;.un
 0450 7369676e 6564205f 46726163 743a7428  signed _Fract:t(
 0460 302c3232 293d7228 302c3129 3b323b30  0,22)=r(0,1);2;0
 0470 3b00756e 7369676e 6564206c 6f6e6720  ;.unsigned long 
 0480 5f467261 63743a74 28302c32 33293d72  _Fract:t(0,23)=r
 0490 28302c31 293b343b 303b0075 6e736967  (0,1);4;0;.unsig
 04a0 6e656420 6c6f6e67 206c6f6e 67205f46  ned long long _F
 04b0 72616374 3a742830 2c323429 3d722830  ract:t(0,24)=r(0
 04c0 2c31293b 383b303b 005f5361 74207368  ,1);8;0;._Sat sh
 04d0 6f727420 5f467261 63743a74 28302c32  ort _Fract:t(0,2
 04e0 35293d72 28302c31 293b313b 303b005f  5)=r(0,1);1;0;._
 04f0 53617420 5f467261 63743a74 28302c32  Sat _Fract:t(0,2
 0500 36293d72 28302c31 293b323b 303b005f  6)=r(0,1);2;0;._
 0510 53617420 6c6f6e67 205f4672 6163743a  Sat long _Fract:
 0520 7428302c 3237293d 7228302c 31293b34  t(0,27)=r(0,1);4
 0530 3b303b00 5f536174 206c6f6e 67206c6f  ;0;._Sat long lo
 0540 6e67205f 46726163 743a7428 302c3238  ng _Fract:t(0,28
 0550 293d7228 302c3129 3b383b30 3b005f53  )=r(0,1);8;0;._S
 0560 61742075 6e736967 6e656420 73686f72  at unsigned shor
 0570 74205f46 72616374 3a742830 2c323929  t _Fract:t(0,29)
 0580 3d722830 2c31293b 313b303b 005f5361  =r(0,1);1;0;._Sa
 0590 7420756e 7369676e 6564205f 46726163  t unsigned _Frac
 05a0 743a7428 302c3330 293d7228 302c3129  t:t(0,30)=r(0,1)
 05b0 3b323b30 3b005f53 61742075 6e736967  ;2;0;._Sat unsig
 05c0 6e656420 6c6f6e67 205f4672 6163743a  ned long _Fract:
 05d0 7428302c 3331293d 7228302c 31293b34  t(0,31)=r(0,1);4
 05e0 3b303b00 5f536174 20756e73 69676e65  ;0;._Sat unsigne
 05f0 64206c6f 6e67206c 6f6e6720 5f467261  d long long _Fra
 0600 63743a74 28302c33 32293d72 28302c31  ct:t(0,32)=r(0,1
 0610 293b383b 303b0073 686f7274 205f4163  );8;0;.short _Ac
 0620 63756d3a 7428302c 3333293d 7228302c  cum:t(0,33)=r(0,
 0630 31293b32 3b303b00 5f416363 756d3a74  1);2;0;._Accum:t
 0640 28302c33 34293d72 28302c31 293b343b  (0,34)=r(0,1);4;
 0650 303b006c 6f6e6720 5f416363 756d3a74  0;.long _Accum:t
 0660 28302c33 35293d72 28302c31 293b383b  (0,35)=r(0,1);8;
 0670 303b006c 6f6e6720 6c6f6e67 205f4163  0;.long long _Ac
 0680 63756d3a 7428302c 3336293d 7228302c  cum:t(0,36)=r(0,
 0690 31293b38 3b303b00 756e7369 676e6564  1);8;0;.unsigned
 06a0 2073686f 7274205f 41636375 6d3a7428   short _Accum:t(
 06b0 302c3337 293d7228 302c3129 3b323b30  0,37)=r(0,1);2;0
 06c0 3b00756e 7369676e 6564205f 41636375  ;.unsigned _Accu
 06d0 6d3a7428 302c3338 293d7228 302c3129  m:t(0,38)=r(0,1)
 06e0 3b343b30 3b00756e 7369676e 6564206c  ;4;0;.unsigned l
 06f0 6f6e6720 5f416363 756d3a74 28302c33  ong _Accum:t(0,3
 0700 39293d72 28302c31 293b383b 303b0075  9)=r(0,1);8;0;.u
 0710 6e736967 6e656420 6c6f6e67 206c6f6e  nsigned long lon
 0720 67205f41 6363756d 3a742830 2c343029  g _Accum:t(0,40)
 0730 3d722830 2c31293b 383b303b 005f5361  =r(0,1);8;0;._Sa
 0740 74207368 6f727420 5f416363 756d3a74  t short _Accum:t
 0750 28302c34 31293d72 28302c31 293b323b  (0,41)=r(0,1);2;
 0760 303b005f 53617420 5f416363 756d3a74  0;._Sat _Accum:t
 0770 28302c34 32293d72 28302c31 293b343b  (0,42)=r(0,1);4;
 0780 303b005f 53617420 6c6f6e67 205f4163  0;._Sat long _Ac
 0790 63756d3a 7428302c 3433293d 7228302c  cum:t(0,43)=r(0,
 07a0 31293b38 3b303b00 5f536174 206c6f6e  1);8;0;._Sat lon
 07b0 67206c6f 6e67205f 41636375 6d3a7428  g long _Accum:t(
 07c0 302c3434 293d7228 302c3129 3b383b30  0,44)=r(0,1);8;0
 07d0 3b005f53 61742075 6e736967 6e656420  ;._Sat unsigned 
 07e0 73686f72 74205f41 6363756d 3a742830  short _Accum:t(0
 07f0 2c343529 3d722830 2c31293b 323b303b  ,45)=r(0,1);2;0;
 0800 005f5361 7420756e 7369676e 6564205f  ._Sat unsigned _
 0810 41636375 6d3a7428 302c3436 293d7228  Accum:t(0,46)=r(
 0820 302c3129 3b343b30 3b005f53 61742075  0,1);4;0;._Sat u
 0830 6e736967 6e656420 6c6f6e67 205f4163  nsigned long _Ac
 0840 63756d3a 7428302c 3437293d 7228302c  cum:t(0,47)=r(0,
 0850 31293b38 3b303b00 5f536174 20756e73  1);8;0;._Sat uns
 0860 69676e65 64206c6f 6e67206c 6f6e6720  igned long long 
 0870 5f416363 756d3a74 28302c34 38293d72  _Accum:t(0,48)=r
 0880 28302c31 293b383b 303b0076 6f69643a  (0,1);8;0;.void:
 0890 7428302c 3439293d 28302c34 3929002f  t(0,49)=(0,49)./
 08a0 7573722f 6c69622f 6176722f 696e636c  usr/lib/avr/incl
 08b0 7564652f 6176722f 696e7465 72727570  ude/avr/interrup
 08c0 742e6800 2f757372 2f6c6962 2f617672  t.h./usr/lib/avr
 08d0 2f696e63 6c756465 2f617672 2f696f2e  /include/avr/io.
 08e0 68002f75 73722f6c 69622f61 76722f69  h./usr/lib/avr/i
 08f0 6e636c75 64652f61 76722f73 66725f64  nclude/avr/sfr_d
 0900 6566732e 68002f75 73722f6c 69622f61  efs.h./usr/lib/a
 0910 76722f69 6e636c75 64652f69 6e747479  vr/include/intty
 0920 7065732e 68002f75 73722f6c 69622f67  pes.h./usr/lib/g
 0930 63632f61 76722f35 2e342e30 2f696e63  cc/avr/5.4.0/inc
 0940 6c756465 2f737464 696e742e 68002f75  lude/stdint.h./u
 0950 73722f6c 69622f61 76722f69 6e636c75  sr/lib/avr/inclu
 0960 64652f73 7464696e 742e6800 696e7438  de/stdint.h.int8
 0970 5f743a74 28362c31 293d2830 2c313229  _t:t(6,1)=(0,12)
 0980 0075696e 74385f74 3a742836 2c32293d  .uint8_t:t(6,2)=
 0990 28302c31 33290069 6e743136 5f743a74  (0,13).int16_t:t
 09a0 28362c33 293d2830 2c312900 75696e74  (6,3)=(0,1).uint
 09b0 31365f74 3a742836 2c34293d 28302c34  16_t:t(6,4)=(0,4
 09c0 2900696e 7433325f 743a7428 362c3529  ).int32_t:t(6,5)
 09d0 3d28302c 33290075 696e7433 325f743a  =(0,3).uint32_t:
 09e0 7428362c 36293d28 302c3529 00696e74  t(6,6)=(0,5).int
 09f0 36345f74 3a742836 2c37293d 28302c38  64_t:t(6,7)=(0,8
 0a00 29007569 6e743634 5f743a74 28362c38  ).uint64_t:t(6,8
 0a10 293d2830 2c392900 696e7470 74725f74  )=(0,9).intptr_t
 0a20 3a742836 2c39293d 28362c33 29007569  :t(6,9)=(6,3).ui
 0a30 6e747074 725f743a 7428362c 3130293d  ntptr_t:t(6,10)=
 0a40 28362c34 2900696e 745f6c65 61737438  (6,4).int_least8
 0a50 5f743a74 28362c31 31293d28 362c3129  _t:t(6,11)=(6,1)
 0a60 0075696e 745f6c65 61737438 5f743a74  .uint_least8_t:t
 0a70 28362c31 32293d28 362c3229 00696e74  (6,12)=(6,2).int
 0a80 5f6c6561 73743136 5f743a74 28362c31  _least16_t:t(6,1
 0a90 33293d28 362c3329 0075696e 745f6c65  3)=(6,3).uint_le
 0aa0 61737431 365f743a 7428362c 3134293d  ast16_t:t(6,14)=
 0ab0 28362c34 2900696e 745f6c65 61737433  (6,4).int_least3
 0ac0 325f743a 7428362c 3135293d 28362c35  2_t:t(6,15)=(6,5
 0ad0 29007569 6e745f6c 65617374 33325f74  ).uint_least32_t
 0ae0 3a742836 2c313629 3d28362c 36290069  :t(6,16)=(6,6).i
 0af0 6e745f6c 65617374 36345f74 3a742836  nt_least64_t:t(6
 0b00 2c313729 3d28362c 37290075 696e745f  ,17)=(6,7).uint_
 0b10 6c656173 7436345f 743a7428 362c3138  least64_t:t(6,18
 0b20 293d2836 2c382900 696e745f 66617374  )=(6,8).int_fast
 0b30 385f743a 7428362c 3139293d 28362c31  8_t:t(6,19)=(6,1
 0b40 29007569 6e745f66 61737438 5f743a74  ).uint_fast8_t:t
 0b50 28362c32 30293d28 362c3229 00696e74  (6,20)=(6,2).int
 0b60 5f666173 7431365f 743a7428 362c3231  _fast16_t:t(6,21
 0b70 293d2836 2c332900 75696e74 5f666173  )=(6,3).uint_fas
 0b80 7431365f 743a7428 362c3232 293d2836  t16_t:t(6,22)=(6
 0b90 2c342900 696e745f 66617374 33325f74  ,4).int_fast32_t
 0ba0 3a742836 2c323329 3d28362c 35290075  :t(6,23)=(6,5).u
 0bb0 696e745f 66617374 33325f74 3a742836  int_fast32_t:t(6
 0bc0 2c323429 3d28362c 36290069 6e745f66  ,24)=(6,6).int_f
 0bd0 61737436 345f743a 7428362c 3235293d  ast64_t:t(6,25)=
 0be0 28362c37 29007569 6e745f66 61737436  (6,7).uint_fast6
 0bf0 345f743a 7428362c 3236293d 28362c38  4_t:t(6,26)=(6,8
 0c00 2900696e 746d6178 5f743a74 28362c32  ).intmax_t:t(6,2
 0c10 37293d28 362c3729 0075696e 746d6178  7)=(6,7).uintmax
 0c20 5f743a74 28362c32 38293d28 362c3829  _t:t(6,28)=(6,8)
 0c30 00696e74 5f666172 7074725f 743a7428  .int_farptr_t:t(
 0c40 342c3129 3d28362c 35290075 696e745f  4,1)=(6,5).uint_
 0c50 66617270 74725f74 3a742834 2c32293d  farptr_t:t(4,2)=
 0c60 28362c36 29002f75 73722f6c 69622f61  (6,6)./usr/lib/a
 0c70 76722f69 6e636c75 64652f61 76722f66  vr/include/avr/f
 0c80 7573652e 68005f5f 66757365 5f743a74  use.h.__fuse_t:t
 0c90 28372c31 293d2837 2c32293d 73336c6f  (7,1)=(7,2)=s3lo
 0ca0 773a2830 2c313329 2c302c38 3b686967  w:(0,13),0,8;hig
 0cb0 683a2830 2c313329 2c382c38 3b657874  h:(0,13),8,8;ext
 0cc0 656e6465 643a2830 2c313329 2c31362c  ended:(0,13),16,
 0cd0 383b3b00 2f757372 2f6c6962 2f617672  8;;./usr/lib/avr
 0ce0 2f696e63 6c756465 2f617672 2f70676d  /include/avr/pgm
 0cf0 73706163 652e6800 2f757372 2f6c6962  space.h./usr/lib
 0d00 2f676363 2f617672 2f352e34 2e302f69  /gcc/avr/5.4.0/i
 0d10 6e636c75 64652f73 74646465 662e6800  nclude/stddef.h.
 0d20 73697a65 5f743a74 28392c31 293d2830  size_t:t(9,1)=(0
 0d30 2c342900 2f757372 2f6c6962 2f617672  ,4)./usr/lib/avr
 0d40 2f696e63 6c756465 2f737464 696f2e68  /include/stdio.h
 0d50 002f7573 722f6c69 622f6763 632f6176  ./usr/lib/gcc/av
 0d60 722f352e 342e302f 696e636c 7564652f  r/5.4.0/include/
 0d70 73746461 72672e68 005f5f67 6e75635f  stdarg.h.__gnuc_
 0d80 76615f6c 6973743a 74283131 2c31293d  va_list:t(11,1)=
 0d90 2831312c 32293d2a 28302c34 39290076  (11,2)=*(0,49).v
 0da0 615f6c69 73743a74 2831312c 33293d28  a_list:t(11,3)=(
 0db0 31312c31 29005f5f 66696c65 3a542831  11,1).__file:T(1
 0dc0 302c3129 3d733134 6275663a 2831302c  0,1)=s14buf:(10,
 0dd0 32293d2a 28302c32 292c302c 31363b75  2)=*(0,2),0,16;u
 0de0 6e676574 3a28302c 3133292c 31362c38  nget:(0,13),16,8
 0df0 3b666c61 67733a28 362c3229 2c32342c  ;flags:(6,2),24,
 0e00 383b7369 7a653a28 302c3129 2c33322c  8;size:(0,1),32,
 0e10 31363b6c 656e3a28 302c3129 2c34382c  16;len:(0,1),48,
 0e20 31363b70 75743a28 31302c33 293d2a28  16;put:(10,3)=*(
 0e30 31302c34 293d6628 302c3129 2c36342c  10,4)=f(0,1),64,
 0e40 31363b67 65743a28 31302c35 293d2a28  16;get:(10,5)=*(
 0e50 31302c36 293d6628 302c3129 2c38302c  10,6)=f(0,1),80,
 0e60 31363b75 64617461 3a283130 2c37293d  16;udata:(10,7)=
 0e70 2a28302c 3439292c 39362c31 363b3b00  *(0,49),96,16;;.
 0e80 46494c45 3a742831 302c3829 3d283130  FILE:t(10,8)=(10
 0e90 2c312900 66706f73 5f743a74 2831302c  ,1).fpos_t:t(10,
 0ea0 39293d28 302c3829 006d6169 6e3a4628  9)=(0,8).main:F(
 0eb0 302c3439 29002f75 73722f6c 69622f61  0,49)./usr/lib/a
 0ec0 76722f69 6e636c75 64652f75 74696c2f  vr/include/util/
 0ed0 64656c61 792e6800 73657269 616c2e63  delay.h.serial.c
 0ee0 00756172 745f7075 74636861 723a4628  .uart_putchar:F(
 0ef0 302c3129 00636872 3a502830 2c322900  0,1).chr:P(0,2).
 0f00 73747265 616d3a50 28302c35 30293d2a  stream:P(0,50)=*
 0f10 28372c38 29007561 72745f69 6e69743a  (7,8).uart_init:
 0f20 4628302c 34392900 75617274 5f676574  F(0,49).uart_get
 0f30 63686172 3a462830 2c322900 75617274  char:F(0,2).uart
 0f40 5f737464 6f75743a 5328372c 38290067  _stdout:S(7,8).g
 0f50 70696f2e 63006770 696f5f69 6e69743a  pio.c.gpio_init:
 0f60 4628302c 34392900 6164632e 63006164  F(0,49).adc.c.ad
 0f70 635f696e 69743a46 28302c34 39290073  c_init:F(0,49).s
 0f80 65745f61 64635f76 616c7565 3a462830  et_adc_value:F(0
 0f90 2c343929 0076616c 3a502835 2c322900  ,49).val:P(5,2).
 0fa0 6765745f 6164635f 76616c75 653a4628  get_adc_value:F(
 0fb0 352c3229 00616463 5f76616c 75653a53  5,2).adc_value:S
 0fc0 28302c35 30293d42 28352c32 29007469  (0,50)=B(5,2).ti
 0fd0 6d65722e 63007469 6d65725f 696e6974  mer.c.timer_init
 0fe0 3a462830 2c343929 00693263 2e630069  :F(0,49).i2c.c.i
 0ff0 32635f69 6e69743a 4628302c 34392900  2c_init:F(0,49).
 1000 6932635f 6d65616e 696e6766 756c5f73  i2c_meaningful_s
 1010 74617475 733a4628 302c3439 29007374  tatus:F(0,49).st
 1020 61747573 3a502835 2c322900 6932635f  atus:P(5,2).i2c_
 1030 73746172 743a4628 302c3439 29006932  start:F(0,49).i2
 1040 635f7374 6f703a46 28302c34 39290069  c_stop:F(0,49).i
 1050 32635f67 65745f73 74617475 733a4628  2c_get_status:F(
 1060 352c3229 00693263 5f786d69 745f6164  5,2).i2c_xmit_ad
 1070 64723a46 28302c34 39290061 64647265  dr:F(0,49).addre
 1080 73733a50 28352c32 29007277 3a502835  ss:P(5,2).rw:P(5
 1090 2c322900 6932635f 786d6974 5f627974  ,2).i2c_xmit_byt
 10a0 653a4628 302c3439 29006461 74613a50  e:F(0,49).data:P
 10b0 28352c32 29006932 635f7265 61645f41  (5,2).i2c_read_A
 10c0 434b3a46 28352c32 29006932 635f7265  CK:F(5,2).i2c_re
 10d0 61645f4e 414b3a46 28352c32 29006565  ad_NAK:F(5,2).ee
 10e0 70726f6d 5f776169 745f756e 74696c5f  prom_wait_until_
 10f0 77726974 655f636f 6d706c65 74653a46  write_complete:F
 1100 28302c34 39290065 6570726f 6d5f7265  (0,49).eeprom_re
 1110 61645f62 7974653a 4628352c 32290061  ad_byte:F(5,2).a
 1120 6464723a 5028352c 32290065 6570726f  ddr:P(5,2).eepro
 1130 6d5f7772 6974655f 62797465 3a462830  m_write_byte:F(0
 1140 2c343929 00656570 726f6d5f 77726974  ,49).eeprom_writ
 1150 655f7061 67653a46 28302c34 39290064  e_page:F(0,49).d
 1160 6174613a 5028302c 3530293d 2a28352c  ata:P(0,50)=*(5,
 1170 32290065 6570726f 6d5f7365 7175656e  2).eeprom_sequen
 1180 7469616c 5f726561 643a4628 302c3439  tial_read:F(0,49
 1190 29006275 663a5028 302c3530 29007374  ).buf:P(0,50).st
 11a0 6172745f 61646472 3a502835 2c322900  art_addr:P(5,2).
 11b0 6c656e3a 5028352c 322900             len:P(5,2).     
Contents of section .comment:
 0000 4743433a 2028474e 55292035 2e342e30  GCC: (GNU) 5.4.0
 0010 00                                   .               
Contents of section .note.gnu.avr.deviceinfo:
 0000 04000000 2d000000 01000000 41565200  ....-.......AVR.
 0010 00000000 00800000 00010000 00080000  ................
 0020 00000000 00040000 08000000 01000000  ................
 0030 0061746d 65676133 32387000 00000000  .atmega328p.....
Contents of section .debug_info:
 0000 f0050000 02000000 00000401 00000000  ................
 0010 00000000 020f0000 00010803 17000000  ................
 0020 02070414 00000005 1b000000 ff030006  ................
 0030 20000000 00002200 00000105 03000081   .....".........
 0040 00072900 00000000 14000000 010503c6  ..).............
 0050 00800008 2e000000 00001400 00000105  ................
 0060 03c00080 00093500 00000000 14000000  ......5.........
 0070 010503c1 0080000a 3c000000 00001400  ........<.......
 0080 00000105 03c20080 000b4300 00000000  ..........C.....
 0090 1b000000 010503c4 0080000c 49000000  ............I...
 00a0 00001400 00000105 03bd0080 000d4f00  ..............O.
 00b0 00000000 14000000 010503b8 0080000e  ................
 00c0 54000000 00001400 00000105 03bc0080  T...............
 00d0 000f5900 00000000 14000000 010503b9  ..Y.............
 00e0 00800010 5e000000 00001400 00000105  ....^...........
 00f0 03bb0080 00116300 00000000 14000000  ......c.........
 0100 010503ba 00800012 68000000 00001400  ........h.......
 0110 00000105 036f0080 00136f00 00000000  .....o....o.....
 0120 14000000 01050336 00800014 75000000  .......6....u...
 0130 00001400 00000105 03800080 00157c00  ..............|.
 0140 00000000 14000000 01050381 00800016  ................
 0150 83000000 00001400 00000105 03820080  ................
 0160 00178a00 00000000 1b000000 01050384  ................
 0170 00800018 90000000 00001b00 00000105  ................
 0180 03880080 00199600 00000000 1b000000  ................
 0190 0105038a 0080001a 9c000000 00001b00  ................
 01a0 00000105 03860080 001ba100 00000000  ................
 01b0 14000000 01050343 0080001c a7000000  .......C........
 01c0 00001400 00000105 03700080 001dae00  .........p......
 01d0 00000000 14000000 01050337 0080001e  ...........7....
 01e0 b4000000 00001400 00000105 03b00080  ................
 01f0 001fbb00 00000000 14000000 010503b1  ................
 0200 00800020 c2000000 00001400 00000105  ... ............
 0210 03b20080 0021c800 00000000 14000000  .....!..........
 0220 010503b4 00800022 ce000000 00001400  ......."........
 0230 00000105 03b30080 0023d400 00000000  .........#......
 0240 14000000 010503b6 00800024 d9000000  ...........$....
 0250 00001400 00000105 03430080 0025df00  .........C...%..
 0260 00000000 14000000 0105037c 00800026  ...........|...&
 0270 e5000000 00001b00 00000105 03780080  .............x..
 0280 0027e900 00000000 14000000 0105037a  .'.............z
 0290 00800028 f0000000 00001400 00000105  ...(............
 02a0 037b0080 0029f700 00000000 14000000  .{...)..........
 02b0 0105037e 0080002a fd000000 00001400  ...~...*........
 02c0 00000105 03500080 002b0201 00000000  .....P...+......
 02d0 14000000 0105037f 0080002c 08010000  ...........,....
 02e0 00001400 00000105 03250080 002d0e01  .........%...-..
 02f0 00000000 14000000 01050324 0080002e  ...........$....
 0300 13010000 00001400 00000105 03230080  .............#..
 0310 002f1801 00000000 14000000 01050328  ./.............(
 0320 00800030 1e010000 00001400 00000105  ...0............
 0330 03270080 00312301 00000000 14000000  .'...1#.........
 0340 01050326 00800032 28010000 00001400  ...&...2(.......
 0350 00000105 032b0080 00332e01 00000000  .....+...3......
 0360 14000000 0105032a 00800034 33010000  .......*...43...
 0370 00001400 00000105 03290080 00353801  .........)...58.
 0380 00000000 14000000 01050348 00800036  ...........H...6
 0390 3e010000 00001400 00000105 03470080  >............G..
 03a0 00374401 00000000 14000000 01050346  .7D............F
 03b0 00800038 4a010000 00001400 00000105  ...8J...........
 03c0 03450080 00395101 00000000 14000000  .E...9Q.........
 03d0 01050344 0080003a 58010000 00001400  ...D...:X.......
 03e0 00000105 036e0080 003b5f01 00000000  .....n...;_.....
 03f0 14000000 01050335 0080003c 65010000  .......5...<e...
 0400 00001400 00000105 03430080 003d6b01  .........C...=k.
 0410 00000000 14000000 01050369 0080003e  ...........i...>
 0420 71010000 00001400 00000105 033d0080  q............=..
 0430 003f7701 00000000 14000000 0105033c  .?w............<
 0440 00800040 7c010000 00001400 00000105  ...@|...........
 0450 03680080 00418201 00000000 14000000  .h...A..........
 0460 0105036d 00800042 89010000 00001400  ...m...B........
 0470 00000105 036c0080 00439001 00000000  .....l...C......
 0480 14000000 0105036b 00800044 97010000  .......k...D....
 0490 00001400 00000105 033b0080 00459d01  .........;...E..
 04a0 00000000 14000000 0105034e 00800046  ...........N...F
 04b0 a2010000 00001400 00000105 034d0080  .............M..
 04c0 0047a701 00000000 14000000 0105034c  .G.............L
 04d0 00800048 ac010000 00001400 00000105  ...H............
 04e0 03600080 0049b301 00000000 14000000  .`...I..........
 04f0 01050364 0080004a b7010000 00001400  ...d...J........
 0500 00000105 03660080 004bbe01 00000000  .....f...K......
 0510 14000000 01050361 0080004c c4010000  .......a...L....
 0520 00001400 00000105 035f0080 004dc901  ........._...M..
 0530 00000000 1b000000 0105035d 0080004e  ...........]...N
 0540 cc010000 00001400 00000105 03570080  .............W..
 0550 004fd301 00000000 14000000 01050355  .O.............U
 0560 00800050 d9010000 00001400 00000105  ...P............
 0570 03540080 0051df01 00000000 14000000  .T...Q..........
 0580 01050353 00800052 e4010000 00001400  ...S...R........
 0590 00000105 034b0080 0053eb01 00000000  .....K...S......
 05a0 14000000 0105034a 00800054 f2010000  .......J...T....
 05b0 00001400 00000105 033e0080 0055f901  .........>...U..
 05c0 00000000 1b000000 01050341 00800056  ...........A...V
 05d0 fe010000 00001400 00000105 03400080  .............@..
 05e0 00570302 00000000 14000000 0105033f  .W.............?
 05f0 00800000                             ....            
Contents of section .debug_abbrev:
 0000 01110125 0e100600 00022400 030e0b0b  ...%......$.....
 0010 3e0b0000 03240003 0e0b0b3e 0b000004  >....$.....>....
 0020 01014913 00000521 0049132f 05000006  ..I....!.I./....
 0030 3400030e 3a0b3b0b 49133f0c 020a0000  4...:.;.I.?.....
 0040 07340003 0e3a0b3b 0b49133f 0c020a00  .4...:.;.I.?....
 0050 00083400 030e3a0b 3b0b4913 3f0c020a  ..4...:.;.I.?...
 0060 00000934 00030e3a 0b3b0b49 133f0c02  ...4...:.;.I.?..
 0070 0a00000a 3400030e 3a0b3b0b 49133f0c  ....4...:.;.I.?.
 0080 020a0000 0b340003 0e3a0b3b 0b49133f  .....4...:.;.I.?
 0090 0c020a00 000c3400 030e3a0b 3b0b4913  ......4...:.;.I.
 00a0 3f0c020a 00000d34 00030e3a 0b3b0b49  ?......4...:.;.I
 00b0 133f0c02 0a00000e 3400030e 3a0b3b0b  .?......4...:.;.
 00c0 49133f0c 020a0000 0f340003 0e3a0b3b  I.?......4...:.;
 00d0 0b49133f 0c020a00 00103400 030e3a0b  .I.?......4...:.
 00e0 3b0b4913 3f0c020a 00001134 00030e3a  ;.I.?......4...:
 00f0 0b3b0b49 133f0c02 0a000012 3400030e  .;.I.?......4...
 0100 3a0b3b0b 49133f0c 020a0000 13340003  :.;.I.?......4..
 0110 0e3a0b3b 0b49133f 0c020a00 00143400  .:.;.I.?......4.
 0120 030e3a0b 3b0b4913 3f0c020a 00001534  ..:.;.I.?......4
 0130 00030e3a 0b3b0b49 133f0c02 0a000016  ...:.;.I.?......
 0140 3400030e 3a0b3b0b 49133f0c 020a0000  4...:.;.I.?.....
 0150 17340003 0e3a0b3b 0b49133f 0c020a00  .4...:.;.I.?....
 0160 00183400 030e3a0b 3b0b4913 3f0c020a  ..4...:.;.I.?...
 0170 00001934 00030e3a 0b3b0b49 133f0c02  ...4...:.;.I.?..
 0180 0a00001a 3400030e 3a0b3b0b 49133f0c  ....4...:.;.I.?.
 0190 020a0000 1b340003 0e3a0b3b 0b49133f  .....4...:.;.I.?
 01a0 0c020a00 001c3400 030e3a0b 3b0b4913  ......4...:.;.I.
 01b0 3f0c020a 00001d34 00030e3a 0b3b0b49  ?......4...:.;.I
 01c0 133f0c02 0a00001e 3400030e 3a0b3b0b  .?......4...:.;.
 01d0 49133f0c 020a0000 1f340003 0e3a0b3b  I.?......4...:.;
 01e0 0b49133f 0c020a00 00203400 030e3a0b  .I.?..... 4...:.
 01f0 3b0b4913 3f0c020a 00002134 00030e3a  ;.I.?.....!4...:
 0200 0b3b0b49 133f0c02 0a000022 3400030e  .;.I.?....."4...
 0210 3a0b3b0b 49133f0c 020a0000 23340003  :.;.I.?.....#4..
 0220 0e3a0b3b 0b49133f 0c020a00 00243400  .:.;.I.?.....$4.
 0230 030e3a0b 3b0b4913 3f0c020a 00002534  ..:.;.I.?.....%4
 0240 00030e3a 0b3b0b49 133f0c02 0a000026  ...:.;.I.?.....&
 0250 3400030e 3a0b3b0b 49133f0c 020a0000  4...:.;.I.?.....
 0260 27340003 0e3a0b3b 0b49133f 0c020a00  '4...:.;.I.?....
 0270 00283400 030e3a0b 3b0b4913 3f0c020a  .(4...:.;.I.?...
 0280 00002934 00030e3a 0b3b0b49 133f0c02  ..)4...:.;.I.?..
 0290 0a00002a 3400030e 3a0b3b0b 49133f0c  ...*4...:.;.I.?.
 02a0 020a0000 2b340003 0e3a0b3b 0b49133f  ....+4...:.;.I.?
 02b0 0c020a00 002c3400 030e3a0b 3b0b4913  .....,4...:.;.I.
 02c0 3f0c020a 00002d34 00030e3a 0b3b0b49  ?.....-4...:.;.I
 02d0 133f0c02 0a00002e 3400030e 3a0b3b0b  .?......4...:.;.
 02e0 49133f0c 020a0000 2f340003 0e3a0b3b  I.?...../4...:.;
 02f0 0b49133f 0c020a00 00303400 030e3a0b  .I.?.....04...:.
 0300 3b0b4913 3f0c020a 00003134 00030e3a  ;.I.?.....14...:
 0310 0b3b0b49 133f0c02 0a000032 3400030e  .;.I.?.....24...
 0320 3a0b3b0b 49133f0c 020a0000 33340003  :.;.I.?.....34..
 0330 0e3a0b3b 0b49133f 0c020a00 00343400  .:.;.I.?.....44.
 0340 030e3a0b 3b0b4913 3f0c020a 00003534  ..:.;.I.?.....54
 0350 00030e3a 0b3b0b49 133f0c02 0a000036  ...:.;.I.?.....6
 0360 3400030e 3a0b3b0b 49133f0c 020a0000  4...:.;.I.?.....
 0370 37340003 0e3a0b3b 0b49133f 0c020a00  74...:.;.I.?....
 0380 00383400 030e3a0b 3b0b4913 3f0c020a  .84...:.;.I.?...
 0390 00003934 00030e3a 0b3b0b49 133f0c02  ..94...:.;.I.?..
 03a0 0a00003a 3400030e 3a0b3b0b 49133f0c  ...:4...:.;.I.?.
 03b0 020a0000 3b340003 0e3a0b3b 0b49133f  ....;4...:.;.I.?
 03c0 0c020a00 003c3400 030e3a0b 3b0b4913  .....<4...:.;.I.
 03d0 3f0c020a 00003d34 00030e3a 0b3b0b49  ?.....=4...:.;.I
 03e0 133f0c02 0a00003e 3400030e 3a0b3b0b  .?.....>4...:.;.
 03f0 49133f0c 020a0000 3f340003 0e3a0b3b  I.?.....?4...:.;
 0400 0b49133f 0c020a00 00403400 030e3a0b  .I.?.....@4...:.
 0410 3b0b4913 3f0c020a 00004134 00030e3a  ;.I.?.....A4...:
 0420 0b3b0b49 133f0c02 0a000042 3400030e  .;.I.?.....B4...
 0430 3a0b3b0b 49133f0c 020a0000 43340003  :.;.I.?.....C4..
 0440 0e3a0b3b 0b49133f 0c020a00 00443400  .:.;.I.?.....D4.
 0450 030e3a0b 3b0b4913 3f0c020a 00004534  ..:.;.I.?.....E4
 0460 00030e3a 0b3b0b49 133f0c02 0a000046  ...:.;.I.?.....F
 0470 3400030e 3a0b3b0b 49133f0c 020a0000  4...:.;.I.?.....
 0480 47340003 0e3a0b3b 0b49133f 0c020a00  G4...:.;.I.?....
 0490 00483400 030e3a0b 3b0b4913 3f0c020a  .H4...:.;.I.?...
 04a0 00004934 00030e3a 0b3b0b49 133f0c02  ..I4...:.;.I.?..
 04b0 0a00004a 3400030e 3a0b3b0b 49133f0c  ...J4...:.;.I.?.
 04c0 020a0000 4b340003 0e3a0b3b 0b49133f  ....K4...:.;.I.?
 04d0 0c020a00 004c3400 030e3a0b 3b0b4913  .....L4...:.;.I.
 04e0 3f0c020a 00004d34 00030e3a 0b3b0b49  ?.....M4...:.;.I
 04f0 133f0c02 0a00004e 3400030e 3a0b3b0b  .?.....N4...:.;.
 0500 49133f0c 020a0000 4f340003 0e3a0b3b  I.?.....O4...:.;
 0510 0b49133f 0c020a00 00503400 030e3a0b  .I.?.....P4...:.
 0520 3b0b4913 3f0c020a 00005134 00030e3a  ;.I.?.....Q4...:
 0530 0b3b0b49 133f0c02 0a000052 3400030e  .;.I.?.....R4...
 0540 3a0b3b0b 49133f0c 020a0000 53340003  :.;.I.?.....S4..
 0550 0e3a0b3b 0b49133f 0c020a00 00543400  .:.;.I.?.....T4.
 0560 030e3a0b 3b0b4913 3f0c020a 00005534  ..:.;.I.?.....U4
 0570 00030e3a 0b3b0b49 133f0c02 0a000056  ...:.;.I.?.....V
 0580 3400030e 3a0b3b0b 49133f0c 020a0000  4...:.;.I.?.....
 0590 57340003 0e3a0b3b 0b49133f 0c020a00  W4...:.;.I.?....
 05a0 0000                                 ..              
Contents of section .debug_line:
 0000 16000000 02001000 00000201 fb0e0a00  ................
 0010 01010101 00000001 0000               ..........      
Contents of section .debug_str:
 0000 6176722d 6c696263 20322e30 2e300075  avr-libc 2.0.0.u
 0010 696e7438 5f740075 696e7431 365f7400  int8_t.uint16_t.
 0020 5f5f6565 70726f6d 00554452 30005543  __eeprom.UDR0.UC
 0030 53523041 00554353 52304200 55435352  SR0A.UCSR0B.UCSR
 0040 30430055 42525230 00545741 4d520054  0C.UBRR0.TWAMR.T
 0050 57425200 54574352 00545753 52005457  WBR.TWCR.TWSR.TW
 0060 44520054 57415200 54494d53 4b310054  DR.TWAR.TIMSK1.T
 0070 49465231 00544343 52314100 54434352  IFR1.TCCR1A.TCCR
 0080 31420054 43435231 43005443 4e543100  1B.TCCR1C.TCNT1.
 0090 4f435231 41004f43 52314200 49435231  OCR1A.OCR1B.ICR1
 00a0 00475443 43520054 494d534b 32005449  .GTCCR.TIMSK2.TI
 00b0 46523200 54434352 32410054 43435232  FR2.TCCR2A.TCCR2
 00c0 42005443 4e543200 4f435232 42004f43  B.TCNT2.OCR2B.OC
 00d0 52324100 41535352 00475443 43520041  R2A.ASSR.GTCCR.A
 00e0 444d5558 00414443 00414443 53524100  DMUX.ADC.ADCSRA.
 00f0 41444353 52420044 49445230 00414353  ADCSRB.DIDR0.ACS
 0100 52004449 44523100 504f5254 42004444  R.DIDR1.PORTB.DD
 0110 52420050 494e4200 504f5254 43004444  RB.PINB.PORTC.DD
 0120 52430050 494e4300 504f5254 44004444  RC.PINC.PORTD.DD
 0130 52440050 494e4400 4f435230 42004f43  RD.PIND.OCR0B.OC
 0140 52304100 54434e54 30005443 43523042  R0A.TCNT0.TCCR0B
 0150 00544343 52304100 54494d53 4b300054  .TCCR0A.TIMSK0.T
 0160 49465230 00475443 43520045 49435241  IFR0.GTCCR.EICRA
 0170 0045494d 534b0045 49465200 50434943  .EIMSK.EIFR.PCIC
 0180 52005043 4d534b32 0050434d 534b3100  R.PCMSK2.PCMSK1.
 0190 50434d53 4b300050 43494652 00535044  PCMSK0.PCIFR.SPD
 01a0 52005350 53520053 50435200 57445443  R.SPSR.SPCR.WDTC
 01b0 53520050 5252004f 53434341 4c00434c  SR.PRR.OSCCAL.CL
 01c0 4b505200 53524547 00535000 53504d43  KPR.SREG.SP.SPMC
 01d0 5352004d 43554352 004d4355 53520053  SR.MCUCR.MCUSR.S
 01e0 4d435200 4750494f 52320047 50494f52  MCR.GPIOR2.GPIOR
 01f0 31004750 494f5230 00454541 52004545  1.GPIOR0.EEAR.EE
 0200 44520045 45435200                    DR.EECR.        

Disassembly of section .text:

00000000 <__vectors>:
   0:	0c 94 fe 00 	jmp	0x1fc	; 0x1fc <__ctors_end>
   4:	0c 94 1b 01 	jmp	0x236	; 0x236 <__bad_interrupt>
   8:	0c 94 1b 01 	jmp	0x236	; 0x236 <__bad_interrupt>
   c:	0c 94 1b 01 	jmp	0x236	; 0x236 <__bad_interrupt>
  10:	0c 94 1b 01 	jmp	0x236	; 0x236 <__bad_interrupt>
  14:	0c 94 1b 01 	jmp	0x236	; 0x236 <__bad_interrupt>
  18:	0c 94 1b 01 	jmp	0x236	; 0x236 <__bad_interrupt>
  1c:	0c 94 1b 01 	jmp	0x236	; 0x236 <__bad_interrupt>
  20:	0c 94 1b 01 	jmp	0x236	; 0x236 <__bad_interrupt>
  24:	0c 94 1b 01 	jmp	0x236	; 0x236 <__bad_interrupt>
  28:	0c 94 1b 01 	jmp	0x236	; 0x236 <__bad_interrupt>
  2c:	0c 94 1b 01 	jmp	0x236	; 0x236 <__bad_interrupt>
  30:	0c 94 1b 01 	jmp	0x236	; 0x236 <__bad_interrupt>
  34:	0c 94 1b 01 	jmp	0x236	; 0x236 <__bad_interrupt>
  38:	0c 94 1b 01 	jmp	0x236	; 0x236 <__bad_interrupt>
  3c:	0c 94 1b 01 	jmp	0x236	; 0x236 <__bad_interrupt>
  40:	0c 94 1b 01 	jmp	0x236	; 0x236 <__bad_interrupt>
  44:	0c 94 1b 01 	jmp	0x236	; 0x236 <__bad_interrupt>
  48:	0c 94 1b 01 	jmp	0x236	; 0x236 <__bad_interrupt>
  4c:	0c 94 1b 01 	jmp	0x236	; 0x236 <__bad_interrupt>
  50:	0c 94 1b 01 	jmp	0x236	; 0x236 <__bad_interrupt>
  54:	0c 94 1b 01 	jmp	0x236	; 0x236 <__bad_interrupt>
  58:	0c 94 1b 01 	jmp	0x236	; 0x236 <__bad_interrupt>
  5c:	0c 94 1b 01 	jmp	0x236	; 0x236 <__bad_interrupt>
  60:	0c 94 1b 01 	jmp	0x236	; 0x236 <__bad_interrupt>
  64:	0c 94 1b 01 	jmp	0x236	; 0x236 <__bad_interrupt>
  68:	8d 01       	movw	r16, r26
  6a:	73 01       	movw	r14, r6
  6c:	73 01       	movw	r14, r6
  6e:	73 01       	movw	r14, r6
  70:	73 01       	movw	r14, r6
  72:	73 01       	movw	r14, r6
  74:	73 01       	movw	r14, r6
  76:	73 01       	movw	r14, r6
  78:	96 01       	movw	r18, r12
  7a:	73 01       	movw	r14, r6
  7c:	73 01       	movw	r14, r6
  7e:	73 01       	movw	r14, r6
  80:	73 01       	movw	r14, r6
  82:	73 01       	movw	r14, r6
  84:	73 01       	movw	r14, r6
  86:	73 01       	movw	r14, r6
  88:	9f 01       	movw	r18, r30
  8a:	73 01       	movw	r14, r6
  8c:	73 01       	movw	r14, r6
  8e:	73 01       	movw	r14, r6
  90:	73 01       	movw	r14, r6
  92:	73 01       	movw	r14, r6
  94:	73 01       	movw	r14, r6
  96:	73 01       	movw	r14, r6
  98:	a8 01       	movw	r20, r16
  9a:	73 01       	movw	r14, r6
  9c:	73 01       	movw	r14, r6
  9e:	73 01       	movw	r14, r6
  a0:	73 01       	movw	r14, r6
  a2:	73 01       	movw	r14, r6
  a4:	73 01       	movw	r14, r6
  a6:	73 01       	movw	r14, r6
  a8:	b1 01       	movw	r22, r2
  aa:	73 01       	movw	r14, r6
  ac:	73 01       	movw	r14, r6
  ae:	73 01       	movw	r14, r6
  b0:	73 01       	movw	r14, r6
  b2:	73 01       	movw	r14, r6
  b4:	73 01       	movw	r14, r6
  b6:	73 01       	movw	r14, r6
  b8:	ba 01       	movw	r22, r20
  ba:	73 01       	movw	r14, r6
  bc:	73 01       	movw	r14, r6
  be:	73 01       	movw	r14, r6
  c0:	73 01       	movw	r14, r6
  c2:	73 01       	movw	r14, r6
  c4:	73 01       	movw	r14, r6
  c6:	73 01       	movw	r14, r6
  c8:	c3 01       	movw	r24, r6
  ca:	73 01       	movw	r14, r6
  cc:	73 01       	movw	r14, r6
  ce:	73 01       	movw	r14, r6
  d0:	73 01       	movw	r14, r6
  d2:	73 01       	movw	r14, r6
  d4:	73 01       	movw	r14, r6
  d6:	73 01       	movw	r14, r6
  d8:	cc 01       	movw	r24, r24
  da:	73 01       	movw	r14, r6
  dc:	73 01       	movw	r14, r6
  de:	73 01       	movw	r14, r6
  e0:	73 01       	movw	r14, r6
  e2:	73 01       	movw	r14, r6
  e4:	73 01       	movw	r14, r6
  e6:	73 01       	movw	r14, r6
  e8:	d5 01       	movw	r26, r10
  ea:	73 01       	movw	r14, r6
  ec:	73 01       	movw	r14, r6
  ee:	73 01       	movw	r14, r6
  f0:	73 01       	movw	r14, r6
  f2:	73 01       	movw	r14, r6
  f4:	73 01       	movw	r14, r6
  f6:	73 01       	movw	r14, r6
  f8:	de 01       	movw	r26, r28
  fa:	73 01       	movw	r14, r6
  fc:	73 01       	movw	r14, r6
  fe:	73 01       	movw	r14, r6
 100:	73 01       	movw	r14, r6
 102:	73 01       	movw	r14, r6
 104:	73 01       	movw	r14, r6
 106:	73 01       	movw	r14, r6
 108:	84 01       	movw	r16, r8

0000010a <__trampolines_end>:
 10a:	25 78       	andi	r18, 0x85	; 133
 10c:	0a 00       	.word	0x000a	; ????

0000010e <__c.2299>:
 10e:	25 78 0a 00                                         %x..

00000112 <__c.2297>:
 112:	25 78 0a 00                                         %x..

00000116 <__c.2295>:
 116:	25 78 0a 00                                         %x..

0000011a <__c.2293>:
 11a:	33 32 2d 62 69 74 20 53 65 72 69 61 6c 20 4e 75     32-bit Serial Nu
 12a:	6d 62 65 72 0a 3a 20 00                             mber.: .

00000132 <__c.2291>:
 132:	25 78 0a 00                                         %x..

00000136 <__c.2289>:
 136:	44 65 76 69 63 65 20 43 4f 44 45 3a 20 00           Device CODE: .

00000144 <__c.2287>:
 144:	25 78 0a 00                                         %x..

00000148 <__c.2285>:
 148:	4d 61 6e 75 66 61 74 75 72 65 20 43 4f 44 45 3a     Manufature CODE:
 158:	20 00                                                .

0000015a <__c.2295>:
 15a:	4e 2f 41 20 25 30 32 58 0a 00                       N/A %02X..

00000164 <__c.2292>:
 164:	4d 52 20 44 41 54 41 2b 52 2c 20 4e 41 4b 0a 00     MR DATA+R, NAK..

00000174 <__c.2289>:
 174:	4d 52 20 44 41 54 41 2b 52 2c 20 41 43 4b 0a 00     MR DATA+R, ACK..

00000184 <__c.2286>:
 184:	4d 52 20 53 4c 41 2b 52 2c 20 4e 41 4b 0a 00        MR SLA+R, NAK..

00000193 <__c.2283>:
 193:	4d 52 20 53 4c 41 2b 52 2c 20 41 43 4b 0a 00        MR SLA+R, ACK..

000001a2 <__c.2280>:
 1a2:	4d 54 20 44 41 54 41 2b 57 2c 20 4e 41 4b 0a 00     MT DATA+W, NAK..

000001b2 <__c.2277>:
 1b2:	4d 54 20 44 41 54 41 2b 57 2c 20 41 43 4b 0a 00     MT DATA+W, ACK..

000001c2 <__c.2274>:
 1c2:	4d 54 20 53 4c 41 2b 57 2c 20 4e 41 4b 0a 00        MT SLA+W, NAK..

000001d1 <__c.2271>:
 1d1:	4d 54 20 53 4c 41 2b 57 2c 20 41 43 4b 0a 00        MT SLA+W, ACK..

000001e0 <__c.2268>:
 1e0:	4e 4f 41 52 42 2f 4e 41 4b 0a 00                    NOARB/NAK..

000001eb <__c.2265>:
 1eb:	52 45 53 54 41 52 54 0a 00                          RESTART..

000001f4 <__c.2261>:
 1f4:	53 54 41 52 54 0a 00 00                             START...

000001fc <__ctors_end>:
 1fc:	11 24       	eor	r1, r1
 1fe:	1f be       	out	0x3f, r1	; 63
 200:	cf ef       	ldi	r28, 0xFF	; 255
 202:	d8 e0       	ldi	r29, 0x08	; 8
 204:	de bf       	out	0x3e, r29	; 62
 206:	cd bf       	out	0x3d, r28	; 61

00000208 <__do_copy_data>:
 208:	11 e0       	ldi	r17, 0x01	; 1
 20a:	a0 e0       	ldi	r26, 0x00	; 0
 20c:	b1 e0       	ldi	r27, 0x01	; 1
 20e:	e0 e5       	ldi	r30, 0x50	; 80
 210:	fc e0       	ldi	r31, 0x0C	; 12
 212:	02 c0       	rjmp	.+4      	; 0x218 <__do_copy_data+0x10>
 214:	05 90       	lpm	r0, Z+
 216:	0d 92       	st	X+, r0
 218:	ae 30       	cpi	r26, 0x0E	; 14
 21a:	b1 07       	cpc	r27, r17
 21c:	d9 f7       	brne	.-10     	; 0x214 <__do_copy_data+0xc>

0000021e <__do_clear_bss>:
 21e:	21 e0       	ldi	r18, 0x01	; 1
 220:	ae e0       	ldi	r26, 0x0E	; 14
 222:	b1 e0       	ldi	r27, 0x01	; 1
 224:	01 c0       	rjmp	.+2      	; 0x228 <.do_clear_bss_start>

00000226 <.do_clear_bss_loop>:
 226:	1d 92       	st	X+, r1

00000228 <.do_clear_bss_start>:
 228:	a5 31       	cpi	r26, 0x15	; 21
 22a:	b2 07       	cpc	r27, r18
 22c:	e1 f7       	brne	.-8      	; 0x226 <.do_clear_bss_loop>
 22e:	0e 94 b8 02 	call	0x570	; 0x570 <main>
 232:	0c 94 26 06 	jmp	0xc4c	; 0xc4c <_exit>

00000236 <__bad_interrupt>:
 236:	0c 94 00 00 	jmp	0	; 0x0 <__vectors>

0000023a <uart_putchar>:
	UCSR0C = (1 << UCSZ01 | 1 << UCSZ00);

	stdout = &uart_stdout;
}

int uart_putchar(char chr, FILE *stream) {
 23a:	cf 93       	push	r28
 23c:	c8 2f       	mov	r28, r24
	if (chr == '\n') {
 23e:	8a 30       	cpi	r24, 0x0A	; 10
 240:	51 f0       	breq	.+20     	; 0x256 <uart_putchar+0x1c>
		uart_putchar('\r', NULL);
	}
	while (!(UCSR0A & (1 << UDRE0)))
 242:	80 91 c0 00 	lds	r24, 0x00C0	; 0x8000c0 <__DATA_REGION_ORIGIN__+0x60>
 246:	85 ff       	sbrs	r24, 5
 248:	fc cf       	rjmp	.-8      	; 0x242 <uart_putchar+0x8>
		;
	UDR0 = chr;
 24a:	c0 93 c6 00 	sts	0x00C6, r28	; 0x8000c6 <__DATA_REGION_ORIGIN__+0x66>
	return 0;
}
 24e:	80 e0       	ldi	r24, 0x00	; 0
 250:	90 e0       	ldi	r25, 0x00	; 0
 252:	cf 91       	pop	r28
 254:	08 95       	ret
	stdout = &uart_stdout;
}

int uart_putchar(char chr, FILE *stream) {
	if (chr == '\n') {
		uart_putchar('\r', NULL);
 256:	60 e0       	ldi	r22, 0x00	; 0
 258:	70 e0       	ldi	r23, 0x00	; 0
 25a:	8d e0       	ldi	r24, 0x0D	; 13
 25c:	0e 94 1d 01 	call	0x23a	; 0x23a <uart_putchar>
 260:	f0 cf       	rjmp	.-32     	; 0x242 <uart_putchar+0x8>

00000262 <uart_init>:
#include "serial.h"

static FILE uart_stdout = FDEV_SETUP_STREAM(uart_putchar, NULL, _FDEV_SETUP_WRITE);

void uart_init(void) {
	UBRR0H = (unsigned char)(UBRR >> 8);
 262:	10 92 c5 00 	sts	0x00C5, r1	; 0x8000c5 <__DATA_REGION_ORIGIN__+0x65>
	UBRR0L = (unsigned char)(UBRR);
 266:	89 e1       	ldi	r24, 0x19	; 25
 268:	80 93 c4 00 	sts	0x00C4, r24	; 0x8000c4 <__DATA_REGION_ORIGIN__+0x64>
	UCSR0A = 0;
 26c:	10 92 c0 00 	sts	0x00C0, r1	; 0x8000c0 <__DATA_REGION_ORIGIN__+0x60>
	UCSR0B = (1 << TXEN0 | 1 << RXEN0);
 270:	88 e1       	ldi	r24, 0x18	; 24
 272:	80 93 c1 00 	sts	0x00C1, r24	; 0x8000c1 <__DATA_REGION_ORIGIN__+0x61>
	UCSR0C = (1 << UCSZ01 | 1 << UCSZ00);
 276:	86 e0       	ldi	r24, 0x06	; 6
 278:	80 93 c2 00 	sts	0x00C2, r24	; 0x8000c2 <__DATA_REGION_ORIGIN__+0x62>

	stdout = &uart_stdout;
 27c:	80 e0       	ldi	r24, 0x00	; 0
 27e:	91 e0       	ldi	r25, 0x01	; 1
 280:	90 93 12 01 	sts	0x0112, r25	; 0x800112 <__iob+0x3>
 284:	80 93 11 01 	sts	0x0111, r24	; 0x800111 <__iob+0x2>
 288:	08 95       	ret

0000028a <uart_getchar>:
	UDR0 = chr;
	return 0;
}

char uart_getchar(void) {
	while (!(UCSR0A & (1 << RXC0)))
 28a:	80 91 c0 00 	lds	r24, 0x00C0	; 0x8000c0 <__DATA_REGION_ORIGIN__+0x60>
 28e:	87 ff       	sbrs	r24, 7
 290:	fc cf       	rjmp	.-8      	; 0x28a <uart_getchar>
		;
	return UDR0;
 292:	80 91 c6 00 	lds	r24, 0x00C6	; 0x8000c6 <__DATA_REGION_ORIGIN__+0x66>
}
 296:	08 95       	ret

00000298 <gpio_init>:
#include <avr/pgmspace.h>
#include <stdio.h>

#include "gpio.h"

void gpio_init() {
 298:	08 95       	ret

0000029a <adc_init>:
	/*
	 * - Reference voltage = AVcc (5V) (REFS[1:0]=0b01)
	 * - Left adjusted data (ADLAR=1)
	 * - Using channel ADC0 (MUX[3:0]=0b0000)
	 */
	ADMUX = (1 << REFS0 | 1 << ADLAR);
 29a:	ec e7       	ldi	r30, 0x7C	; 124
 29c:	f0 e0       	ldi	r31, 0x00	; 0
 29e:	80 e6       	ldi	r24, 0x60	; 96
 2a0:	80 83       	st	Z, r24
	ADMUX |= (0 << MUX3 | 0 << MUX2 | 0 << MUX1 | 0 << MUX0);
 2a2:	80 81       	ld	r24, Z
 2a4:	80 83       	st	Z, r24
	/*
	 * - ADC enabled
	 * - Interrupts enabled
	 * - Prescaler set to 8 (ADPS[2:0]=0b011)
	 */
	ADCSRA = (1 << ADEN | 1 << ADIE | 0 << ADPS2 | 1 << ADPS1 | 1 << ADPS0);
 2a6:	8b e8       	ldi	r24, 0x8B	; 139
 2a8:	80 93 7a 00 	sts	0x007A, r24	; 0x80007a <__DATA_REGION_ORIGIN__+0x1a>
 2ac:	08 95       	ret

000002ae <set_adc_value>:
}

void set_adc_value(uint8_t val) {
	adc_value = val;
 2ae:	80 93 0e 01 	sts	0x010E, r24	; 0x80010e <__data_end>
 2b2:	08 95       	ret

000002b4 <get_adc_value>:
}

uint8_t get_adc_value(void) {
	return adc_value;
 2b4:	80 91 0e 01 	lds	r24, 0x010E	; 0x80010e <__data_end>
}
 2b8:	08 95       	ret

000002ba <timer_init>:
#include <avr/io.h>

#include "timer.h"

void timer_init() {
 2ba:	08 95       	ret

000002bc <i2c_init>:

	/* TWSR  TWI Status Register
	   TWPS1  TWPS0   Prescaler Value
       0      0         1
    */
	TWSR |= (0<<TWPS1 ); // setting presclar value to 4
 2bc:	e9 eb       	ldi	r30, 0xB9	; 185
 2be:	f0 e0       	ldi	r31, 0x00	; 0
 2c0:	80 81       	ld	r24, Z
 2c2:	80 83       	st	Z, r24
	TWSR |= (1<<TWPS0 );               // setting bit rate
 2c4:	80 81       	ld	r24, Z
 2c6:	81 60       	ori	r24, 0x01	; 1
 2c8:	80 83       	st	Z, r24
	//TWSR = 0x00;
	TWBR = 0x12; //set SCL to 100KHz; from calculating;  SCL frequency = CPU Clock frequency/16+ 2*(TWBR) (prescalar) =72( decimal value)
 2ca:	82 e1       	ldi	r24, 0x12	; 18
 2cc:	80 93 b8 00 	sts	0x00B8, r24	; 0x8000b8 <__DATA_REGION_ORIGIN__+0x58>
     
    TWCR = (1<<TWEN); // enabling TWI (two wire interface)
 2d0:	84 e0       	ldi	r24, 0x04	; 4
 2d2:	80 93 bc 00 	sts	0x00BC, r24	; 0x8000bc <__DATA_REGION_ORIGIN__+0x5c>
 2d6:	08 95       	ret

000002d8 <i2c_meaningful_status>:
}

void i2c_meaningful_status(uint8_t status){
	switch (status) {
 2d8:	48 2f       	mov	r20, r24
 2da:	50 e0       	ldi	r21, 0x00	; 0
 2dc:	fa 01       	movw	r30, r20
 2de:	38 97       	sbiw	r30, 0x08	; 8
 2e0:	e1 35       	cpi	r30, 0x51	; 81
 2e2:	f1 05       	cpc	r31, r1
 2e4:	68 f0       	brcs	.+26     	; 0x300 <i2c_meaningful_status+0x28>
			break;
		case 0x58: // DATA received, NAK sent
			printf_P(PSTR("MR DATA+R, NAK\n"));
			break;
		default:
			printf_P(PSTR("N/A %02X\n"), status);
 2e6:	1f 92       	push	r1
 2e8:	8f 93       	push	r24
 2ea:	8a e5       	ldi	r24, 0x5A	; 90
 2ec:	91 e0       	ldi	r25, 0x01	; 1
 2ee:	9f 93       	push	r25
 2f0:	8f 93       	push	r24
 2f2:	0e 94 38 03 	call	0x670	; 0x670 <printf_P>
			break;
 2f6:	0f 90       	pop	r0
 2f8:	0f 90       	pop	r0
 2fa:	0f 90       	pop	r0
 2fc:	0f 90       	pop	r0
 2fe:	08 95       	ret
     
    TWCR = (1<<TWEN); // enabling TWI (two wire interface)
}

void i2c_meaningful_status(uint8_t status){
	switch (status) {
 300:	ec 5c       	subi	r30, 0xCC	; 204
 302:	ff 4f       	sbci	r31, 0xFF	; 255
 304:	0c 94 32 03 	jmp	0x664	; 0x664 <__tablejump2__>
			break;
		case 0x50: // DATA received, ACK sent
			printf_P(PSTR("MR DATA+R, ACK\n"));
			break;
		case 0x58: // DATA received, NAK sent
			printf_P(PSTR("MR DATA+R, NAK\n"));
 308:	84 e6       	ldi	r24, 0x64	; 100
 30a:	91 e0       	ldi	r25, 0x01	; 1
 30c:	9f 93       	push	r25
 30e:	8f 93       	push	r24
 310:	0e 94 38 03 	call	0x670	; 0x670 <printf_P>
			break;
 314:	0f 90       	pop	r0
 316:	0f 90       	pop	r0
 318:	08 95       	ret
}

void i2c_meaningful_status(uint8_t status){
	switch (status) {
		case 0x08: // START transmitted, proceed to load SLA+W/R
			printf_P(PSTR("START\n"));
 31a:	84 ef       	ldi	r24, 0xF4	; 244
 31c:	91 e0       	ldi	r25, 0x01	; 1
 31e:	9f 93       	push	r25
 320:	8f 93       	push	r24
 322:	0e 94 38 03 	call	0x670	; 0x670 <printf_P>
			break;
 326:	0f 90       	pop	r0
 328:	0f 90       	pop	r0
 32a:	08 95       	ret
		case 0x10: // repeated START transmitted, proceed to load SLA+W/R
			printf_P(PSTR("RESTART\n"));
 32c:	8b ee       	ldi	r24, 0xEB	; 235
 32e:	91 e0       	ldi	r25, 0x01	; 1
 330:	9f 93       	push	r25
 332:	8f 93       	push	r24
 334:	0e 94 38 03 	call	0x670	; 0x670 <printf_P>
			break;
 338:	0f 90       	pop	r0
 33a:	0f 90       	pop	r0
 33c:	08 95       	ret
		case 0x38: // NAK or DATA ARBITRATION LOST
			printf_P(PSTR("NOARB/NAK\n"));
			break;
		// MASTER TRANSMIT
		case 0x18: // SLA+W transmitted, ACK received
			printf_P(PSTR("MT SLA+W, ACK\n"));
 33e:	81 ed       	ldi	r24, 0xD1	; 209
 340:	91 e0       	ldi	r25, 0x01	; 1
 342:	9f 93       	push	r25
 344:	8f 93       	push	r24
 346:	0e 94 38 03 	call	0x670	; 0x670 <printf_P>
			break;
 34a:	0f 90       	pop	r0
 34c:	0f 90       	pop	r0
 34e:	08 95       	ret
		case 0x20: // SLA+W transmitted, NAK received
			printf_P(PSTR("MT SLA+W, NAK\n"));
 350:	82 ec       	ldi	r24, 0xC2	; 194
 352:	91 e0       	ldi	r25, 0x01	; 1
 354:	9f 93       	push	r25
 356:	8f 93       	push	r24
 358:	0e 94 38 03 	call	0x670	; 0x670 <printf_P>
				break;
 35c:	0f 90       	pop	r0
 35e:	0f 90       	pop	r0
 360:	08 95       	ret
		case 0x28: // DATA transmitted, ACK received
			printf_P(PSTR("MT DATA+W, ACK\n"));
 362:	82 eb       	ldi	r24, 0xB2	; 178
 364:	91 e0       	ldi	r25, 0x01	; 1
 366:	9f 93       	push	r25
 368:	8f 93       	push	r24
 36a:	0e 94 38 03 	call	0x670	; 0x670 <printf_P>
			break;
 36e:	0f 90       	pop	r0
 370:	0f 90       	pop	r0
 372:	08 95       	ret
		case 0x30: // DATA transmitted, NAK received
			printf_P(PSTR("MT DATA+W, NAK\n"));
 374:	82 ea       	ldi	r24, 0xA2	; 162
 376:	91 e0       	ldi	r25, 0x01	; 1
 378:	9f 93       	push	r25
 37a:	8f 93       	push	r24
 37c:	0e 94 38 03 	call	0x670	; 0x670 <printf_P>
			break;
 380:	0f 90       	pop	r0
 382:	0f 90       	pop	r0
 384:	08 95       	ret
			break;
		case 0x10: // repeated START transmitted, proceed to load SLA+W/R
			printf_P(PSTR("RESTART\n"));
			break;
		case 0x38: // NAK or DATA ARBITRATION LOST
			printf_P(PSTR("NOARB/NAK\n"));
 386:	80 ee       	ldi	r24, 0xE0	; 224
 388:	91 e0       	ldi	r25, 0x01	; 1
 38a:	9f 93       	push	r25
 38c:	8f 93       	push	r24
 38e:	0e 94 38 03 	call	0x670	; 0x670 <printf_P>
			break;
 392:	0f 90       	pop	r0
 394:	0f 90       	pop	r0
 396:	08 95       	ret
		case 0x30: // DATA transmitted, NAK received
			printf_P(PSTR("MT DATA+W, NAK\n"));
			break;
		// MASTER RECEIVE
		case 0x40: // SLA+R transmitted, ACK received
			printf_P(PSTR("MR SLA+R, ACK\n"));
 398:	83 e9       	ldi	r24, 0x93	; 147
 39a:	91 e0       	ldi	r25, 0x01	; 1
 39c:	9f 93       	push	r25
 39e:	8f 93       	push	r24
 3a0:	0e 94 38 03 	call	0x670	; 0x670 <printf_P>
			break;
 3a4:	0f 90       	pop	r0
 3a6:	0f 90       	pop	r0
 3a8:	08 95       	ret
		case 0x48: // SLA+R transmitted, NAK received
			printf_P(PSTR("MR SLA+R, NAK\n"));
 3aa:	84 e8       	ldi	r24, 0x84	; 132
 3ac:	91 e0       	ldi	r25, 0x01	; 1
 3ae:	9f 93       	push	r25
 3b0:	8f 93       	push	r24
 3b2:	0e 94 38 03 	call	0x670	; 0x670 <printf_P>
			break;
 3b6:	0f 90       	pop	r0
 3b8:	0f 90       	pop	r0
 3ba:	08 95       	ret
		case 0x50: // DATA received, ACK sent
			printf_P(PSTR("MR DATA+R, ACK\n"));
 3bc:	84 e7       	ldi	r24, 0x74	; 116
 3be:	91 e0       	ldi	r25, 0x01	; 1
 3c0:	9f 93       	push	r25
 3c2:	8f 93       	push	r24
 3c4:	0e 94 38 03 	call	0x670	; 0x670 <printf_P>
			break;
 3c8:	0f 90       	pop	r0
 3ca:	0f 90       	pop	r0
 3cc:	08 95       	ret

000003ce <i2c_start>:

//Generate start condition
/*We need to set TWSTA and stop TWSTO bits along with TWINT and TWEN bits for a start.
 After the start signal is sent, we need to wait for status (until TWINT resets zero).*/
inline void i2c_start() {  
	TWCR = (1<<TWINT)|(1<<TWSTA)|(1<<TWEN);   //Two wire control register TWCR
 3ce:	84 ea       	ldi	r24, 0xA4	; 164
 3d0:	80 93 bc 00 	sts	0x00BC, r24	; 0x8000bc <__DATA_REGION_ORIGIN__+0x5c>
    while ((TWCR & (1<<TWINT)) == 0); 
 3d4:	80 91 bc 00 	lds	r24, 0x00BC	; 0x8000bc <__DATA_REGION_ORIGIN__+0x5c>
 3d8:	87 ff       	sbrs	r24, 7
 3da:	fc cf       	rjmp	.-8      	; 0x3d4 <i2c_start+0x6>
}
 3dc:	08 95       	ret

000003de <i2c_stop>:

//Generate stop condition
inline void i2c_stop() {   
	TWCR = (1<<TWINT)|(1<<TWSTO)|(1<<TWEN);
 3de:	84 e9       	ldi	r24, 0x94	; 148
 3e0:	80 93 bc 00 	sts	0x00BC, r24	; 0x8000bc <__DATA_REGION_ORIGIN__+0x5c>
	
	while (TWCR & (1<<TWSTO)); //bus realeased
 3e4:	80 91 bc 00 	lds	r24, 0x00BC	; 0x8000bc <__DATA_REGION_ORIGIN__+0x5c>
 3e8:	84 fd       	sbrc	r24, 4
 3ea:	fc cf       	rjmp	.-8      	; 0x3e4 <i2c_stop+0x6>
}
 3ec:	08 95       	ret

000003ee <i2c_get_status>:

//Return status of ongoing operation
inline uint8_t i2c_get_status(void) {
	uint8_t status;
    //mask status
    status = TWSR & 0xF8;            //Two wire status register
 3ee:	80 91 b9 00 	lds	r24, 0x00B9	; 0x8000b9 <__DATA_REGION_ORIGIN__+0x59>
    return status;
}
 3f2:	88 7f       	andi	r24, 0xF8	; 248
 3f4:	08 95       	ret

000003f6 <i2c_xmit_addr>:

//Send SLA+ R/W (Address Pkt consisting of slave address and READ and WRITE bit)
inline void i2c_xmit_addr(uint8_t address, uint8_t rw) {
TWDR =(address & 0xfe)|( rw & 0x1);                            //load SLA_W into register TWDR
 3f6:	8e 7f       	andi	r24, 0xFE	; 254
 3f8:	61 70       	andi	r22, 0x01	; 1
 3fa:	68 2b       	or	r22, r24
 3fc:	60 93 bb 00 	sts	0x00BB, r22	; 0x8000bb <__DATA_REGION_ORIGIN__+0x5b>
TWCR = (1<<TWINT) | (1<<TWEN);        // Clear TWINT bit in TWCR to start transmission of address
 400:	84 e8       	ldi	r24, 0x84	; 132
 402:	80 93 bc 00 	sts	0x00BC, r24	; 0x8000bc <__DATA_REGION_ORIGIN__+0x5c>
while ((TWCR & (1<<TWINT))==0); //kames sure that PKt has been sent
 406:	80 91 bc 00 	lds	r24, 0x00BC	; 0x8000bc <__DATA_REGION_ORIGIN__+0x5c>
 40a:	87 ff       	sbrs	r24, 7
 40c:	fc cf       	rjmp	.-8      	; 0x406 <__LOCK_REGION_LENGTH__+0x6>
}
 40e:	08 95       	ret

00000410 <i2c_xmit_byte>:

//Send/write just one byte
 void i2c_xmit_byte(uint8_t data) {
	TWDR = data;                           //Two Wire Data Register TWDR
 410:	80 93 bb 00 	sts	0x00BB, r24	; 0x8000bb <__DATA_REGION_ORIGIN__+0x5b>
    TWCR = (1<<TWINT)|(1<<TWEN);
 414:	84 e8       	ldi	r24, 0x84	; 132
 416:	80 93 bc 00 	sts	0x00BC, r24	; 0x8000bc <__DATA_REGION_ORIGIN__+0x5c>
    while ((TWCR & (1<<TWINT)) == 0);    //This indicates that the DATA has been transmitted, and ACK/NACK has been received.
 41a:	80 91 bc 00 	lds	r24, 0x00BC	; 0x8000bc <__DATA_REGION_ORIGIN__+0x5c>
 41e:	87 ff       	sbrs	r24, 7
 420:	fc cf       	rjmp	.-8      	; 0x41a <i2c_xmit_byte+0xa>
}
 422:	08 95       	ret

00000424 <i2c_read_ACK>:

//Read just one byte with ACK //for more bytes
 uint8_t i2c_read_ACK(){
 TWCR = (1<<TWINT)|(1<<TWEN)|(1<<TWEA);      //TWEA enable ack
 424:	84 ec       	ldi	r24, 0xC4	; 196
 426:	80 93 bc 00 	sts	0x00BC, r24	; 0x8000bc <__DATA_REGION_ORIGIN__+0x5c>
    while ((TWCR & (1<<TWINT)) == 0); 
 42a:	80 91 bc 00 	lds	r24, 0x00BC	; 0x8000bc <__DATA_REGION_ORIGIN__+0x5c>
 42e:	87 ff       	sbrs	r24, 7
 430:	fc cf       	rjmp	.-8      	; 0x42a <i2c_read_ACK+0x6>
    return TWDR;
 432:	80 91 bb 00 	lds	r24, 0x00BB	; 0x8000bb <__DATA_REGION_ORIGIN__+0x5b>
}
 436:	08 95       	ret

00000438 <i2c_read_NAK>:

//Read just one byte without ACK //for the last byte
 uint8_t i2c_read_NAK(){
	TWCR = (1<<TWINT)|(1<<TWEN); //ack bit not set
 438:	84 e8       	ldi	r24, 0x84	; 132
 43a:	80 93 bc 00 	sts	0x00BC, r24	; 0x8000bc <__DATA_REGION_ORIGIN__+0x5c>
    while ((TWCR & (1<<TWINT)) == 0);
 43e:	80 91 bc 00 	lds	r24, 0x00BC	; 0x8000bc <__DATA_REGION_ORIGIN__+0x5c>
 442:	87 ff       	sbrs	r24, 7
 444:	fc cf       	rjmp	.-8      	; 0x43e <i2c_read_NAK+0x6>
    return TWDR;
 446:	80 91 bb 00 	lds	r24, 0x00BB	; 0x8000bb <__DATA_REGION_ORIGIN__+0x5b>
}
 44a:	08 95       	ret

0000044c <eeprom_wait_until_write_complete>:

//Generate start condition
/*We need to set TWSTA and stop TWSTO bits along with TWINT and TWEN bits for a start.
 After the start signal is sent, we need to wait for status (until TWINT resets zero).*/
inline void i2c_start() {  
	TWCR = (1<<TWINT)|(1<<TWSTA)|(1<<TWEN);   //Two wire control register TWCR
 44c:	34 ea       	ldi	r19, 0xA4	; 164
    return status;
}

//Send SLA+ R/W (Address Pkt consisting of slave address and READ and WRITE bit)
inline void i2c_xmit_addr(uint8_t address, uint8_t rw) {
TWDR =(address & 0xfe)|( rw & 0x1);                            //load SLA_W into register TWDR
 44e:	20 ea       	ldi	r18, 0xA0	; 160
TWCR = (1<<TWINT) | (1<<TWEN);        // Clear TWINT bit in TWCR to start transmission of address
 450:	94 e8       	ldi	r25, 0x84	; 132

//Generate start condition
/*We need to set TWSTA and stop TWSTO bits along with TWINT and TWEN bits for a start.
 After the start signal is sent, we need to wait for status (until TWINT resets zero).*/
inline void i2c_start() {  
	TWCR = (1<<TWINT)|(1<<TWSTA)|(1<<TWEN);   //Two wire control register TWCR
 452:	30 93 bc 00 	sts	0x00BC, r19	; 0x8000bc <__DATA_REGION_ORIGIN__+0x5c>
    while ((TWCR & (1<<TWINT)) == 0); 
 456:	80 91 bc 00 	lds	r24, 0x00BC	; 0x8000bc <__DATA_REGION_ORIGIN__+0x5c>
 45a:	87 ff       	sbrs	r24, 7
 45c:	fc cf       	rjmp	.-8      	; 0x456 <eeprom_wait_until_write_complete+0xa>
    return status;
}

//Send SLA+ R/W (Address Pkt consisting of slave address and READ and WRITE bit)
inline void i2c_xmit_addr(uint8_t address, uint8_t rw) {
TWDR =(address & 0xfe)|( rw & 0x1);                            //load SLA_W into register TWDR
 45e:	20 93 bb 00 	sts	0x00BB, r18	; 0x8000bb <__DATA_REGION_ORIGIN__+0x5b>
TWCR = (1<<TWINT) | (1<<TWEN);        // Clear TWINT bit in TWCR to start transmission of address
 462:	90 93 bc 00 	sts	0x00BC, r25	; 0x8000bc <__DATA_REGION_ORIGIN__+0x5c>
while ((TWCR & (1<<TWINT))==0); //kames sure that PKt has been sent
 466:	80 91 bc 00 	lds	r24, 0x00BC	; 0x8000bc <__DATA_REGION_ORIGIN__+0x5c>
 46a:	87 ff       	sbrs	r24, 7
 46c:	fc cf       	rjmp	.-8      	; 0x466 <eeprom_wait_until_write_complete+0x1a>
 46e:	f1 cf       	rjmp	.-30     	; 0x452 <eeprom_wait_until_write_complete+0x6>

00000470 <eeprom_read_byte>:

//Generate start condition
/*We need to set TWSTA and stop TWSTO bits along with TWINT and TWEN bits for a start.
 After the start signal is sent, we need to wait for status (until TWINT resets zero).*/
inline void i2c_start() {  
	TWCR = (1<<TWINT)|(1<<TWSTA)|(1<<TWEN);   //Two wire control register TWCR
 470:	94 ea       	ldi	r25, 0xA4	; 164
 472:	90 93 bc 00 	sts	0x00BC, r25	; 0x8000bc <__DATA_REGION_ORIGIN__+0x5c>
    while ((TWCR & (1<<TWINT)) == 0); 
 476:	90 91 bc 00 	lds	r25, 0x00BC	; 0x8000bc <__DATA_REGION_ORIGIN__+0x5c>
 47a:	97 ff       	sbrs	r25, 7
 47c:	fc cf       	rjmp	.-8      	; 0x476 <eeprom_read_byte+0x6>
    return status;
}

//Send SLA+ R/W (Address Pkt consisting of slave address and READ and WRITE bit)
inline void i2c_xmit_addr(uint8_t address, uint8_t rw) {
TWDR =(address & 0xfe)|( rw & 0x1);                            //load SLA_W into register TWDR
 47e:	90 ea       	ldi	r25, 0xA0	; 160
 480:	90 93 bb 00 	sts	0x00BB, r25	; 0x8000bb <__DATA_REGION_ORIGIN__+0x5b>
TWCR = (1<<TWINT) | (1<<TWEN);        // Clear TWINT bit in TWCR to start transmission of address
 484:	94 e8       	ldi	r25, 0x84	; 132
 486:	90 93 bc 00 	sts	0x00BC, r25	; 0x8000bc <__DATA_REGION_ORIGIN__+0x5c>
while ((TWCR & (1<<TWINT))==0); //kames sure that PKt has been sent
 48a:	90 91 bc 00 	lds	r25, 0x00BC	; 0x8000bc <__DATA_REGION_ORIGIN__+0x5c>
 48e:	97 ff       	sbrs	r25, 7
 490:	fc cf       	rjmp	.-8      	; 0x48a <eeprom_read_byte+0x1a>
}

//Send/write just one byte
 void i2c_xmit_byte(uint8_t data) {
	TWDR = data;                           //Two Wire Data Register TWDR
 492:	80 93 bb 00 	sts	0x00BB, r24	; 0x8000bb <__DATA_REGION_ORIGIN__+0x5b>
    TWCR = (1<<TWINT)|(1<<TWEN);
 496:	84 e8       	ldi	r24, 0x84	; 132
 498:	80 93 bc 00 	sts	0x00BC, r24	; 0x8000bc <__DATA_REGION_ORIGIN__+0x5c>
    while ((TWCR & (1<<TWINT)) == 0);    //This indicates that the DATA has been transmitted, and ACK/NACK has been received.
 49c:	80 91 bc 00 	lds	r24, 0x00BC	; 0x8000bc <__DATA_REGION_ORIGIN__+0x5c>
 4a0:	87 ff       	sbrs	r24, 7
 4a2:	fc cf       	rjmp	.-8      	; 0x49c <eeprom_read_byte+0x2c>

//Generate start condition
/*We need to set TWSTA and stop TWSTO bits along with TWINT and TWEN bits for a start.
 After the start signal is sent, we need to wait for status (until TWINT resets zero).*/
inline void i2c_start() {  
	TWCR = (1<<TWINT)|(1<<TWSTA)|(1<<TWEN);   //Two wire control register TWCR
 4a4:	84 ea       	ldi	r24, 0xA4	; 164
 4a6:	80 93 bc 00 	sts	0x00BC, r24	; 0x8000bc <__DATA_REGION_ORIGIN__+0x5c>
    while ((TWCR & (1<<TWINT)) == 0); 
 4aa:	80 91 bc 00 	lds	r24, 0x00BC	; 0x8000bc <__DATA_REGION_ORIGIN__+0x5c>
 4ae:	87 ff       	sbrs	r24, 7
 4b0:	fc cf       	rjmp	.-8      	; 0x4aa <eeprom_read_byte+0x3a>
    return status;
}

//Send SLA+ R/W (Address Pkt consisting of slave address and READ and WRITE bit)
inline void i2c_xmit_addr(uint8_t address, uint8_t rw) {
TWDR =(address & 0xfe)|( rw & 0x1);                            //load SLA_W into register TWDR
 4b2:	81 ea       	ldi	r24, 0xA1	; 161
 4b4:	80 93 bb 00 	sts	0x00BB, r24	; 0x8000bb <__DATA_REGION_ORIGIN__+0x5b>
TWCR = (1<<TWINT) | (1<<TWEN);        // Clear TWINT bit in TWCR to start transmission of address
 4b8:	84 e8       	ldi	r24, 0x84	; 132
 4ba:	80 93 bc 00 	sts	0x00BC, r24	; 0x8000bc <__DATA_REGION_ORIGIN__+0x5c>
while ((TWCR & (1<<TWINT))==0); //kames sure that PKt has been sent
 4be:	80 91 bc 00 	lds	r24, 0x00BC	; 0x8000bc <__DATA_REGION_ORIGIN__+0x5c>
 4c2:	87 ff       	sbrs	r24, 7
 4c4:	fc cf       	rjmp	.-8      	; 0x4be <eeprom_read_byte+0x4e>
    return TWDR;
}

//Read just one byte without ACK //for the last byte
 uint8_t i2c_read_NAK(){
	TWCR = (1<<TWINT)|(1<<TWEN); //ack bit not set
 4c6:	84 e8       	ldi	r24, 0x84	; 132
 4c8:	80 93 bc 00 	sts	0x00BC, r24	; 0x8000bc <__DATA_REGION_ORIGIN__+0x5c>
    while ((TWCR & (1<<TWINT)) == 0);
 4cc:	80 91 bc 00 	lds	r24, 0x00BC	; 0x8000bc <__DATA_REGION_ORIGIN__+0x5c>
 4d0:	87 ff       	sbrs	r24, 7
 4d2:	fc cf       	rjmp	.-8      	; 0x4cc <eeprom_read_byte+0x5c>
    return TWDR;
 4d4:	80 91 bb 00 	lds	r24, 0x00BB	; 0x8000bb <__DATA_REGION_ORIGIN__+0x5b>
    while ((TWCR & (1<<TWINT)) == 0); 
}

//Generate stop condition
inline void i2c_stop() {   
	TWCR = (1<<TWINT)|(1<<TWSTO)|(1<<TWEN);
 4d8:	94 e9       	ldi	r25, 0x94	; 148
 4da:	90 93 bc 00 	sts	0x00BC, r25	; 0x8000bc <__DATA_REGION_ORIGIN__+0x5c>
	
	while (TWCR & (1<<TWSTO)); //bus realeased
 4de:	90 91 bc 00 	lds	r25, 0x00BC	; 0x8000bc <__DATA_REGION_ORIGIN__+0x5c>
 4e2:	94 fd       	sbrc	r25, 4
 4e4:	fc cf       	rjmp	.-8      	; 0x4de <eeprom_read_byte+0x6e>

	 //Generate stop condition
	  i2c_stop();
	  return received;
	
}
 4e6:	08 95       	ret

000004e8 <eeprom_write_byte>:

void eeprom_write_byte(uint8_t addr, uint8_t data) {
 4e8:	d8 2f       	mov	r29, r24
 4ea:	c6 2f       	mov	r28, r22

//Generate start condition
/*We need to set TWSTA and stop TWSTO bits along with TWINT and TWEN bits for a start.
 After the start signal is sent, we need to wait for status (until TWINT resets zero).*/
inline void i2c_start() {  
	TWCR = (1<<TWINT)|(1<<TWSTA)|(1<<TWEN);   //Two wire control register TWCR
 4ec:	84 ea       	ldi	r24, 0xA4	; 164
 4ee:	80 93 bc 00 	sts	0x00BC, r24	; 0x8000bc <__DATA_REGION_ORIGIN__+0x5c>
    while ((TWCR & (1<<TWINT)) == 0); 
 4f2:	80 91 bc 00 	lds	r24, 0x00BC	; 0x8000bc <__DATA_REGION_ORIGIN__+0x5c>
 4f6:	87 ff       	sbrs	r24, 7
 4f8:	fc cf       	rjmp	.-8      	; 0x4f2 <eeprom_write_byte+0xa>

//Return status of ongoing operation
inline uint8_t i2c_get_status(void) {
	uint8_t status;
    //mask status
    status = TWSR & 0xF8;            //Two wire status register
 4fa:	80 91 b9 00 	lds	r24, 0x00B9	; 0x8000b9 <__DATA_REGION_ORIGIN__+0x59>

void eeprom_write_byte(uint8_t addr, uint8_t data) {
	//Generate start condition
	i2c_start();

	i2c_meaningful_status(i2c_get_status());
 4fe:	88 7f       	andi	r24, 0xF8	; 248
 500:	0e 94 6c 01 	call	0x2d8	; 0x2d8 <i2c_meaningful_status>
    return status;
}

//Send SLA+ R/W (Address Pkt consisting of slave address and READ and WRITE bit)
inline void i2c_xmit_addr(uint8_t address, uint8_t rw) {
TWDR =(address & 0xfe)|( rw & 0x1);                            //load SLA_W into register TWDR
 504:	80 ea       	ldi	r24, 0xA0	; 160
 506:	80 93 bb 00 	sts	0x00BB, r24	; 0x8000bb <__DATA_REGION_ORIGIN__+0x5b>
TWCR = (1<<TWINT) | (1<<TWEN);        // Clear TWINT bit in TWCR to start transmission of address
 50a:	84 e8       	ldi	r24, 0x84	; 132
 50c:	80 93 bc 00 	sts	0x00BC, r24	; 0x8000bc <__DATA_REGION_ORIGIN__+0x5c>
while ((TWCR & (1<<TWINT))==0); //kames sure that PKt has been sent
 510:	80 91 bc 00 	lds	r24, 0x00BC	; 0x8000bc <__DATA_REGION_ORIGIN__+0x5c>
 514:	87 ff       	sbrs	r24, 7
 516:	fc cf       	rjmp	.-8      	; 0x510 <eeprom_write_byte+0x28>

//Return status of ongoing operation
inline uint8_t i2c_get_status(void) {
	uint8_t status;
    //mask status
    status = TWSR & 0xF8;            //Two wire status register
 518:	80 91 b9 00 	lds	r24, 0x00B9	; 0x8000b9 <__DATA_REGION_ORIGIN__+0x59>
	i2c_meaningful_status(i2c_get_status());

	//Send SLA+ R/W (Address Pkt consisting of slave address and READ and WRITE bit)
	i2c_xmit_addr(EEPROM_addr, 0);

	i2c_meaningful_status(i2c_get_status());
 51c:	88 7f       	andi	r24, 0xF8	; 248
 51e:	0e 94 6c 01 	call	0x2d8	; 0x2d8 <i2c_meaningful_status>
while ((TWCR & (1<<TWINT))==0); //kames sure that PKt has been sent
}

//Send/write just one byte
 void i2c_xmit_byte(uint8_t data) {
	TWDR = data;                           //Two Wire Data Register TWDR
 522:	d0 93 bb 00 	sts	0x00BB, r29	; 0x8000bb <__DATA_REGION_ORIGIN__+0x5b>
    TWCR = (1<<TWINT)|(1<<TWEN);
 526:	84 e8       	ldi	r24, 0x84	; 132
 528:	80 93 bc 00 	sts	0x00BC, r24	; 0x8000bc <__DATA_REGION_ORIGIN__+0x5c>
    while ((TWCR & (1<<TWINT)) == 0);    //This indicates that the DATA has been transmitted, and ACK/NACK has been received.
 52c:	80 91 bc 00 	lds	r24, 0x00BC	; 0x8000bc <__DATA_REGION_ORIGIN__+0x5c>
 530:	87 ff       	sbrs	r24, 7
 532:	fc cf       	rjmp	.-8      	; 0x52c <eeprom_write_byte+0x44>

//Return status of ongoing operation
inline uint8_t i2c_get_status(void) {
	uint8_t status;
    //mask status
    status = TWSR & 0xF8;            //Two wire status register
 534:	80 91 b9 00 	lds	r24, 0x00B9	; 0x8000b9 <__DATA_REGION_ORIGIN__+0x59>

	i2c_meaningful_status(i2c_get_status());
     
	 //send the address to be written to
     i2c_xmit_byte(addr);
	 i2c_meaningful_status(i2c_get_status());
 538:	88 7f       	andi	r24, 0xF8	; 248
 53a:	0e 94 6c 01 	call	0x2d8	; 0x2d8 <i2c_meaningful_status>
while ((TWCR & (1<<TWINT))==0); //kames sure that PKt has been sent
}

//Send/write just one byte
 void i2c_xmit_byte(uint8_t data) {
	TWDR = data;                           //Two Wire Data Register TWDR
 53e:	c0 93 bb 00 	sts	0x00BB, r28	; 0x8000bb <__DATA_REGION_ORIGIN__+0x5b>
    TWCR = (1<<TWINT)|(1<<TWEN);
 542:	84 e8       	ldi	r24, 0x84	; 132
 544:	80 93 bc 00 	sts	0x00BC, r24	; 0x8000bc <__DATA_REGION_ORIGIN__+0x5c>
    while ((TWCR & (1<<TWINT)) == 0);    //This indicates that the DATA has been transmitted, and ACK/NACK has been received.
 548:	80 91 bc 00 	lds	r24, 0x00BC	; 0x8000bc <__DATA_REGION_ORIGIN__+0x5c>
 54c:	87 ff       	sbrs	r24, 7
 54e:	fc cf       	rjmp	.-8      	; 0x548 <eeprom_write_byte+0x60>

//Return status of ongoing operation
inline uint8_t i2c_get_status(void) {
	uint8_t status;
    //mask status
    status = TWSR & 0xF8;            //Two wire status register
 550:	80 91 b9 00 	lds	r24, 0x00B9	; 0x8000b9 <__DATA_REGION_ORIGIN__+0x59>
     i2c_xmit_byte(addr);
	 i2c_meaningful_status(i2c_get_status());

	//Send/write just one byte
    i2c_xmit_byte(data);
	i2c_meaningful_status(i2c_get_status());
 554:	88 7f       	andi	r24, 0xF8	; 248
 556:	0e 94 6c 01 	call	0x2d8	; 0x2d8 <i2c_meaningful_status>
    while ((TWCR & (1<<TWINT)) == 0); 
}

//Generate stop condition
inline void i2c_stop() {   
	TWCR = (1<<TWINT)|(1<<TWSTO)|(1<<TWEN);
 55a:	84 e9       	ldi	r24, 0x94	; 148
 55c:	80 93 bc 00 	sts	0x00BC, r24	; 0x8000bc <__DATA_REGION_ORIGIN__+0x5c>
	
	while (TWCR & (1<<TWSTO)); //bus realeased
 560:	80 91 bc 00 	lds	r24, 0x00BC	; 0x8000bc <__DATA_REGION_ORIGIN__+0x5c>
 564:	84 fd       	sbrc	r24, 4
 566:	fc cf       	rjmp	.-8      	; 0x560 <eeprom_write_byte+0x78>

    //Generate stop condition
    i2c_stop();

	//wait until write has finished
	eeprom_wait_until_write_complete();
 568:	0e 94 26 02 	call	0x44c	; 0x44c <eeprom_wait_until_write_complete>

0000056c <eeprom_write_page>:
}



void eeprom_write_page(uint8_t addr, uint8_t *data) {
 56c:	08 95       	ret

0000056e <eeprom_sequential_read>:
 56e:	08 95       	ret

00000570 <main>:
#include "timer.h"


void main (void) {

	i2c_init();
 570:	0e 94 5e 01 	call	0x2bc	; 0x2bc <i2c_init>
	uart_init();
 574:	0e 94 31 01 	call	0x262	; 0x262 <uart_init>

	sei();
 578:	78 94       	sei

	
    uint8_t Eeprom_data;

		printf_P(PSTR("Manufature CODE: "));
 57a:	88 e4       	ldi	r24, 0x48	; 72
 57c:	91 e0       	ldi	r25, 0x01	; 1
 57e:	9f 93       	push	r25
 580:	8f 93       	push	r24
 582:	0e 94 38 03 	call	0x670	; 0x670 <printf_P>
		Eeprom_data = eeprom_read_byte(0xFA);
 586:	8a ef       	ldi	r24, 0xFA	; 250
 588:	0e 94 38 02 	call	0x470	; 0x470 <eeprom_read_byte>
		printf_P(PSTR("%x\n"),Eeprom_data);
 58c:	1f 92       	push	r1
 58e:	8f 93       	push	r24
 590:	84 e4       	ldi	r24, 0x44	; 68
 592:	91 e0       	ldi	r25, 0x01	; 1
 594:	9f 93       	push	r25
 596:	8f 93       	push	r24
 598:	0e 94 38 03 	call	0x670	; 0x670 <printf_P>

		printf_P(PSTR("Device CODE: "));
 59c:	86 e3       	ldi	r24, 0x36	; 54
 59e:	91 e0       	ldi	r25, 0x01	; 1
 5a0:	9f 93       	push	r25
 5a2:	8f 93       	push	r24
 5a4:	0e 94 38 03 	call	0x670	; 0x670 <printf_P>
		Eeprom_data = eeprom_read_byte(0xFB);
 5a8:	8b ef       	ldi	r24, 0xFB	; 251
 5aa:	0e 94 38 02 	call	0x470	; 0x470 <eeprom_read_byte>
		printf_P(PSTR("%x\n"),Eeprom_data);
 5ae:	1f 92       	push	r1
 5b0:	8f 93       	push	r24
 5b2:	82 e3       	ldi	r24, 0x32	; 50
 5b4:	91 e0       	ldi	r25, 0x01	; 1
 5b6:	9f 93       	push	r25
 5b8:	8f 93       	push	r24
 5ba:	0e 94 38 03 	call	0x670	; 0x670 <printf_P>
	#else
		//round up by default
		__ticks_dc = (uint32_t)(ceil(fabs(__tmp)));
	#endif

	__builtin_avr_delay_cycles(__ticks_dc);
 5be:	2f ef       	ldi	r18, 0xFF	; 255
 5c0:	81 ee       	ldi	r24, 0xE1	; 225
 5c2:	94 e0       	ldi	r25, 0x04	; 4
 5c4:	21 50       	subi	r18, 0x01	; 1
 5c6:	80 40       	sbci	r24, 0x00	; 0
 5c8:	90 40       	sbci	r25, 0x00	; 0
 5ca:	e1 f7       	brne	.-8      	; 0x5c4 <main+0x54>
 5cc:	00 c0       	rjmp	.+0      	; 0x5ce <main+0x5e>
 5ce:	00 00       	nop

		_delay_ms(100);

		printf_P(PSTR("32-bit Serial Number\n: "));
 5d0:	8a e1       	ldi	r24, 0x1A	; 26
 5d2:	91 e0       	ldi	r25, 0x01	; 1
 5d4:	9f 93       	push	r25
 5d6:	8f 93       	push	r24
 5d8:	0e 94 38 03 	call	0x670	; 0x670 <printf_P>
		Eeprom_data = eeprom_read_byte(0xFC);
 5dc:	8c ef       	ldi	r24, 0xFC	; 252
 5de:	0e 94 38 02 	call	0x470	; 0x470 <eeprom_read_byte>
		printf_P(PSTR("%x\n"),Eeprom_data);
 5e2:	1f 92       	push	r1
 5e4:	8f 93       	push	r24
 5e6:	86 e1       	ldi	r24, 0x16	; 22
 5e8:	91 e0       	ldi	r25, 0x01	; 1
 5ea:	9f 93       	push	r25
 5ec:	8f 93       	push	r24
 5ee:	0e 94 38 03 	call	0x670	; 0x670 <printf_P>
		
		Eeprom_data = eeprom_read_byte(0xFD);
 5f2:	8d ef       	ldi	r24, 0xFD	; 253
 5f4:	0e 94 38 02 	call	0x470	; 0x470 <eeprom_read_byte>
		printf_P(PSTR("%x\n"),Eeprom_data);
 5f8:	1f 92       	push	r1
 5fa:	8f 93       	push	r24
 5fc:	82 e1       	ldi	r24, 0x12	; 18
 5fe:	91 e0       	ldi	r25, 0x01	; 1
 600:	9f 93       	push	r25
 602:	8f 93       	push	r24
 604:	0e 94 38 03 	call	0x670	; 0x670 <printf_P>
		
		Eeprom_data = eeprom_read_byte(0xFE);
 608:	8e ef       	ldi	r24, 0xFE	; 254
 60a:	0e 94 38 02 	call	0x470	; 0x470 <eeprom_read_byte>
		printf_P(PSTR("%x\n"),Eeprom_data);
 60e:	1f 92       	push	r1
 610:	8f 93       	push	r24
 612:	8e e0       	ldi	r24, 0x0E	; 14
 614:	91 e0       	ldi	r25, 0x01	; 1
 616:	9f 93       	push	r25
 618:	8f 93       	push	r24
 61a:	0e 94 38 03 	call	0x670	; 0x670 <printf_P>
		
		Eeprom_data = eeprom_read_byte(0xFF);
 61e:	8f ef       	ldi	r24, 0xFF	; 255
 620:	0e 94 38 02 	call	0x470	; 0x470 <eeprom_read_byte>
		printf_P(PSTR("%x\n"),Eeprom_data);
 624:	1f 92       	push	r1
 626:	8f 93       	push	r24
 628:	8a e0       	ldi	r24, 0x0A	; 10
 62a:	91 e0       	ldi	r25, 0x01	; 1
 62c:	9f 93       	push	r25
 62e:	8f 93       	push	r24
 630:	0e 94 38 03 	call	0x670	; 0x670 <printf_P>
 634:	8d b7       	in	r24, 0x3d	; 61
 636:	9e b7       	in	r25, 0x3e	; 62
 638:	4e 96       	adiw	r24, 0x1e	; 30
 63a:	0f b6       	in	r0, 0x3f	; 63
 63c:	f8 94       	cli
 63e:	9e bf       	out	0x3e, r25	; 62
 640:	0f be       	out	0x3f, r0	; 63
 642:	8d bf       	out	0x3d, r24	; 61

   

	while (1) {
		
        i2c_start();
 644:	0e 94 e7 01 	call	0x3ce	; 0x3ce <i2c_start>
		i2c_meaningful_status(i2c_get_status());
 648:	0e 94 f7 01 	call	0x3ee	; 0x3ee <i2c_get_status>
 64c:	0e 94 6c 01 	call	0x2d8	; 0x2d8 <i2c_meaningful_status>
 650:	9f ef       	ldi	r25, 0xFF	; 255
 652:	23 ed       	ldi	r18, 0xD3	; 211
 654:	80 e3       	ldi	r24, 0x30	; 48
 656:	91 50       	subi	r25, 0x01	; 1
 658:	20 40       	sbci	r18, 0x00	; 0
 65a:	80 40       	sbci	r24, 0x00	; 0
 65c:	e1 f7       	brne	.-8      	; 0x656 <main+0xe6>
 65e:	00 c0       	rjmp	.+0      	; 0x660 <main+0xf0>
 660:	00 00       	nop
 662:	f0 cf       	rjmp	.-32     	; 0x644 <main+0xd4>

00000664 <__tablejump2__>:
 664:	ee 0f       	add	r30, r30
 666:	ff 1f       	adc	r31, r31
 668:	05 90       	lpm	r0, Z+
 66a:	f4 91       	lpm	r31, Z
 66c:	e0 2d       	mov	r30, r0
 66e:	09 94       	ijmp

00000670 <printf_P>:
 670:	a0 e0       	ldi	r26, 0x00	; 0
 672:	b0 e0       	ldi	r27, 0x00	; 0
 674:	ee e3       	ldi	r30, 0x3E	; 62
 676:	f3 e0       	ldi	r31, 0x03	; 3
 678:	0c 94 fd 05 	jmp	0xbfa	; 0xbfa <__prologue_saves__+0x1c>
 67c:	ae 01       	movw	r20, r28
 67e:	49 5f       	subi	r20, 0xF9	; 249
 680:	5f 4f       	sbci	r21, 0xFF	; 255
 682:	da 01       	movw	r26, r20
 684:	6d 91       	ld	r22, X+
 686:	7d 91       	ld	r23, X+
 688:	ad 01       	movw	r20, r26
 68a:	0f e0       	ldi	r16, 0x0F	; 15
 68c:	11 e0       	ldi	r17, 0x01	; 1
 68e:	f8 01       	movw	r30, r16
 690:	82 81       	ldd	r24, Z+2	; 0x02
 692:	93 81       	ldd	r25, Z+3	; 0x03
 694:	dc 01       	movw	r26, r24
 696:	13 96       	adiw	r26, 0x03	; 3
 698:	2c 91       	ld	r18, X
 69a:	13 97       	sbiw	r26, 0x03	; 3
 69c:	28 60       	ori	r18, 0x08	; 8
 69e:	13 96       	adiw	r26, 0x03	; 3
 6a0:	2c 93       	st	X, r18
 6a2:	0e 94 5e 03 	call	0x6bc	; 0x6bc <vfprintf>
 6a6:	d8 01       	movw	r26, r16
 6a8:	12 96       	adiw	r26, 0x02	; 2
 6aa:	ed 91       	ld	r30, X+
 6ac:	fc 91       	ld	r31, X
 6ae:	13 97       	sbiw	r26, 0x03	; 3
 6b0:	23 81       	ldd	r18, Z+3	; 0x03
 6b2:	27 7f       	andi	r18, 0xF7	; 247
 6b4:	23 83       	std	Z+3, r18	; 0x03
 6b6:	e4 e0       	ldi	r30, 0x04	; 4
 6b8:	0c 94 19 06 	jmp	0xc32	; 0xc32 <__epilogue_restores__+0x1c>

000006bc <vfprintf>:
 6bc:	ab e0       	ldi	r26, 0x0B	; 11
 6be:	b0 e0       	ldi	r27, 0x00	; 0
 6c0:	e4 e6       	ldi	r30, 0x64	; 100
 6c2:	f3 e0       	ldi	r31, 0x03	; 3
 6c4:	0c 94 ef 05 	jmp	0xbde	; 0xbde <__prologue_saves__>
 6c8:	6c 01       	movw	r12, r24
 6ca:	7b 01       	movw	r14, r22
 6cc:	8a 01       	movw	r16, r20
 6ce:	fc 01       	movw	r30, r24
 6d0:	17 82       	std	Z+7, r1	; 0x07
 6d2:	16 82       	std	Z+6, r1	; 0x06
 6d4:	83 81       	ldd	r24, Z+3	; 0x03
 6d6:	81 ff       	sbrs	r24, 1
 6d8:	cc c1       	rjmp	.+920    	; 0xa72 <__stack+0x173>
 6da:	ce 01       	movw	r24, r28
 6dc:	01 96       	adiw	r24, 0x01	; 1
 6de:	3c 01       	movw	r6, r24
 6e0:	f6 01       	movw	r30, r12
 6e2:	93 81       	ldd	r25, Z+3	; 0x03
 6e4:	f7 01       	movw	r30, r14
 6e6:	93 fd       	sbrc	r25, 3
 6e8:	85 91       	lpm	r24, Z+
 6ea:	93 ff       	sbrs	r25, 3
 6ec:	81 91       	ld	r24, Z+
 6ee:	7f 01       	movw	r14, r30
 6f0:	88 23       	and	r24, r24
 6f2:	09 f4       	brne	.+2      	; 0x6f6 <vfprintf+0x3a>
 6f4:	ba c1       	rjmp	.+884    	; 0xa6a <__stack+0x16b>
 6f6:	85 32       	cpi	r24, 0x25	; 37
 6f8:	39 f4       	brne	.+14     	; 0x708 <vfprintf+0x4c>
 6fa:	93 fd       	sbrc	r25, 3
 6fc:	85 91       	lpm	r24, Z+
 6fe:	93 ff       	sbrs	r25, 3
 700:	81 91       	ld	r24, Z+
 702:	7f 01       	movw	r14, r30
 704:	85 32       	cpi	r24, 0x25	; 37
 706:	29 f4       	brne	.+10     	; 0x712 <vfprintf+0x56>
 708:	b6 01       	movw	r22, r12
 70a:	90 e0       	ldi	r25, 0x00	; 0
 70c:	0e 94 55 05 	call	0xaaa	; 0xaaa <fputc>
 710:	e7 cf       	rjmp	.-50     	; 0x6e0 <vfprintf+0x24>
 712:	91 2c       	mov	r9, r1
 714:	21 2c       	mov	r2, r1
 716:	31 2c       	mov	r3, r1
 718:	ff e1       	ldi	r31, 0x1F	; 31
 71a:	f3 15       	cp	r31, r3
 71c:	d8 f0       	brcs	.+54     	; 0x754 <vfprintf+0x98>
 71e:	8b 32       	cpi	r24, 0x2B	; 43
 720:	79 f0       	breq	.+30     	; 0x740 <vfprintf+0x84>
 722:	38 f4       	brcc	.+14     	; 0x732 <vfprintf+0x76>
 724:	80 32       	cpi	r24, 0x20	; 32
 726:	79 f0       	breq	.+30     	; 0x746 <vfprintf+0x8a>
 728:	83 32       	cpi	r24, 0x23	; 35
 72a:	a1 f4       	brne	.+40     	; 0x754 <vfprintf+0x98>
 72c:	23 2d       	mov	r18, r3
 72e:	20 61       	ori	r18, 0x10	; 16
 730:	1d c0       	rjmp	.+58     	; 0x76c <vfprintf+0xb0>
 732:	8d 32       	cpi	r24, 0x2D	; 45
 734:	61 f0       	breq	.+24     	; 0x74e <vfprintf+0x92>
 736:	80 33       	cpi	r24, 0x30	; 48
 738:	69 f4       	brne	.+26     	; 0x754 <vfprintf+0x98>
 73a:	23 2d       	mov	r18, r3
 73c:	21 60       	ori	r18, 0x01	; 1
 73e:	16 c0       	rjmp	.+44     	; 0x76c <vfprintf+0xb0>
 740:	83 2d       	mov	r24, r3
 742:	82 60       	ori	r24, 0x02	; 2
 744:	38 2e       	mov	r3, r24
 746:	e3 2d       	mov	r30, r3
 748:	e4 60       	ori	r30, 0x04	; 4
 74a:	3e 2e       	mov	r3, r30
 74c:	2a c0       	rjmp	.+84     	; 0x7a2 <vfprintf+0xe6>
 74e:	f3 2d       	mov	r31, r3
 750:	f8 60       	ori	r31, 0x08	; 8
 752:	1d c0       	rjmp	.+58     	; 0x78e <vfprintf+0xd2>
 754:	37 fc       	sbrc	r3, 7
 756:	2d c0       	rjmp	.+90     	; 0x7b2 <vfprintf+0xf6>
 758:	20 ed       	ldi	r18, 0xD0	; 208
 75a:	28 0f       	add	r18, r24
 75c:	2a 30       	cpi	r18, 0x0A	; 10
 75e:	40 f0       	brcs	.+16     	; 0x770 <vfprintf+0xb4>
 760:	8e 32       	cpi	r24, 0x2E	; 46
 762:	b9 f4       	brne	.+46     	; 0x792 <vfprintf+0xd6>
 764:	36 fc       	sbrc	r3, 6
 766:	81 c1       	rjmp	.+770    	; 0xa6a <__stack+0x16b>
 768:	23 2d       	mov	r18, r3
 76a:	20 64       	ori	r18, 0x40	; 64
 76c:	32 2e       	mov	r3, r18
 76e:	19 c0       	rjmp	.+50     	; 0x7a2 <vfprintf+0xe6>
 770:	36 fe       	sbrs	r3, 6
 772:	06 c0       	rjmp	.+12     	; 0x780 <vfprintf+0xc4>
 774:	8a e0       	ldi	r24, 0x0A	; 10
 776:	98 9e       	mul	r9, r24
 778:	20 0d       	add	r18, r0
 77a:	11 24       	eor	r1, r1
 77c:	92 2e       	mov	r9, r18
 77e:	11 c0       	rjmp	.+34     	; 0x7a2 <vfprintf+0xe6>
 780:	ea e0       	ldi	r30, 0x0A	; 10
 782:	2e 9e       	mul	r2, r30
 784:	20 0d       	add	r18, r0
 786:	11 24       	eor	r1, r1
 788:	22 2e       	mov	r2, r18
 78a:	f3 2d       	mov	r31, r3
 78c:	f0 62       	ori	r31, 0x20	; 32
 78e:	3f 2e       	mov	r3, r31
 790:	08 c0       	rjmp	.+16     	; 0x7a2 <vfprintf+0xe6>
 792:	8c 36       	cpi	r24, 0x6C	; 108
 794:	21 f4       	brne	.+8      	; 0x79e <vfprintf+0xe2>
 796:	83 2d       	mov	r24, r3
 798:	80 68       	ori	r24, 0x80	; 128
 79a:	38 2e       	mov	r3, r24
 79c:	02 c0       	rjmp	.+4      	; 0x7a2 <vfprintf+0xe6>
 79e:	88 36       	cpi	r24, 0x68	; 104
 7a0:	41 f4       	brne	.+16     	; 0x7b2 <vfprintf+0xf6>
 7a2:	f7 01       	movw	r30, r14
 7a4:	93 fd       	sbrc	r25, 3
 7a6:	85 91       	lpm	r24, Z+
 7a8:	93 ff       	sbrs	r25, 3
 7aa:	81 91       	ld	r24, Z+
 7ac:	7f 01       	movw	r14, r30
 7ae:	81 11       	cpse	r24, r1
 7b0:	b3 cf       	rjmp	.-154    	; 0x718 <vfprintf+0x5c>
 7b2:	98 2f       	mov	r25, r24
 7b4:	9f 7d       	andi	r25, 0xDF	; 223
 7b6:	95 54       	subi	r25, 0x45	; 69
 7b8:	93 30       	cpi	r25, 0x03	; 3
 7ba:	28 f4       	brcc	.+10     	; 0x7c6 <vfprintf+0x10a>
 7bc:	0c 5f       	subi	r16, 0xFC	; 252
 7be:	1f 4f       	sbci	r17, 0xFF	; 255
 7c0:	9f e3       	ldi	r25, 0x3F	; 63
 7c2:	99 83       	std	Y+1, r25	; 0x01
 7c4:	0d c0       	rjmp	.+26     	; 0x7e0 <vfprintf+0x124>
 7c6:	83 36       	cpi	r24, 0x63	; 99
 7c8:	31 f0       	breq	.+12     	; 0x7d6 <vfprintf+0x11a>
 7ca:	83 37       	cpi	r24, 0x73	; 115
 7cc:	71 f0       	breq	.+28     	; 0x7ea <vfprintf+0x12e>
 7ce:	83 35       	cpi	r24, 0x53	; 83
 7d0:	09 f0       	breq	.+2      	; 0x7d4 <vfprintf+0x118>
 7d2:	59 c0       	rjmp	.+178    	; 0x886 <vfprintf+0x1ca>
 7d4:	21 c0       	rjmp	.+66     	; 0x818 <vfprintf+0x15c>
 7d6:	f8 01       	movw	r30, r16
 7d8:	80 81       	ld	r24, Z
 7da:	89 83       	std	Y+1, r24	; 0x01
 7dc:	0e 5f       	subi	r16, 0xFE	; 254
 7de:	1f 4f       	sbci	r17, 0xFF	; 255
 7e0:	88 24       	eor	r8, r8
 7e2:	83 94       	inc	r8
 7e4:	91 2c       	mov	r9, r1
 7e6:	53 01       	movw	r10, r6
 7e8:	13 c0       	rjmp	.+38     	; 0x810 <vfprintf+0x154>
 7ea:	28 01       	movw	r4, r16
 7ec:	f2 e0       	ldi	r31, 0x02	; 2
 7ee:	4f 0e       	add	r4, r31
 7f0:	51 1c       	adc	r5, r1
 7f2:	f8 01       	movw	r30, r16
 7f4:	a0 80       	ld	r10, Z
 7f6:	b1 80       	ldd	r11, Z+1	; 0x01
 7f8:	36 fe       	sbrs	r3, 6
 7fa:	03 c0       	rjmp	.+6      	; 0x802 <vfprintf+0x146>
 7fc:	69 2d       	mov	r22, r9
 7fe:	70 e0       	ldi	r23, 0x00	; 0
 800:	02 c0       	rjmp	.+4      	; 0x806 <vfprintf+0x14a>
 802:	6f ef       	ldi	r22, 0xFF	; 255
 804:	7f ef       	ldi	r23, 0xFF	; 255
 806:	c5 01       	movw	r24, r10
 808:	0e 94 4a 05 	call	0xa94	; 0xa94 <strnlen>
 80c:	4c 01       	movw	r8, r24
 80e:	82 01       	movw	r16, r4
 810:	f3 2d       	mov	r31, r3
 812:	ff 77       	andi	r31, 0x7F	; 127
 814:	3f 2e       	mov	r3, r31
 816:	16 c0       	rjmp	.+44     	; 0x844 <vfprintf+0x188>
 818:	28 01       	movw	r4, r16
 81a:	22 e0       	ldi	r18, 0x02	; 2
 81c:	42 0e       	add	r4, r18
 81e:	51 1c       	adc	r5, r1
 820:	f8 01       	movw	r30, r16
 822:	a0 80       	ld	r10, Z
 824:	b1 80       	ldd	r11, Z+1	; 0x01
 826:	36 fe       	sbrs	r3, 6
 828:	03 c0       	rjmp	.+6      	; 0x830 <vfprintf+0x174>
 82a:	69 2d       	mov	r22, r9
 82c:	70 e0       	ldi	r23, 0x00	; 0
 82e:	02 c0       	rjmp	.+4      	; 0x834 <vfprintf+0x178>
 830:	6f ef       	ldi	r22, 0xFF	; 255
 832:	7f ef       	ldi	r23, 0xFF	; 255
 834:	c5 01       	movw	r24, r10
 836:	0e 94 3f 05 	call	0xa7e	; 0xa7e <strnlen_P>
 83a:	4c 01       	movw	r8, r24
 83c:	f3 2d       	mov	r31, r3
 83e:	f0 68       	ori	r31, 0x80	; 128
 840:	3f 2e       	mov	r3, r31
 842:	82 01       	movw	r16, r4
 844:	33 fc       	sbrc	r3, 3
 846:	1b c0       	rjmp	.+54     	; 0x87e <vfprintf+0x1c2>
 848:	82 2d       	mov	r24, r2
 84a:	90 e0       	ldi	r25, 0x00	; 0
 84c:	88 16       	cp	r8, r24
 84e:	99 06       	cpc	r9, r25
 850:	b0 f4       	brcc	.+44     	; 0x87e <vfprintf+0x1c2>
 852:	b6 01       	movw	r22, r12
 854:	80 e2       	ldi	r24, 0x20	; 32
 856:	90 e0       	ldi	r25, 0x00	; 0
 858:	0e 94 55 05 	call	0xaaa	; 0xaaa <fputc>
 85c:	2a 94       	dec	r2
 85e:	f4 cf       	rjmp	.-24     	; 0x848 <vfprintf+0x18c>
 860:	f5 01       	movw	r30, r10
 862:	37 fc       	sbrc	r3, 7
 864:	85 91       	lpm	r24, Z+
 866:	37 fe       	sbrs	r3, 7
 868:	81 91       	ld	r24, Z+
 86a:	5f 01       	movw	r10, r30
 86c:	b6 01       	movw	r22, r12
 86e:	90 e0       	ldi	r25, 0x00	; 0
 870:	0e 94 55 05 	call	0xaaa	; 0xaaa <fputc>
 874:	21 10       	cpse	r2, r1
 876:	2a 94       	dec	r2
 878:	21 e0       	ldi	r18, 0x01	; 1
 87a:	82 1a       	sub	r8, r18
 87c:	91 08       	sbc	r9, r1
 87e:	81 14       	cp	r8, r1
 880:	91 04       	cpc	r9, r1
 882:	71 f7       	brne	.-36     	; 0x860 <vfprintf+0x1a4>
 884:	e8 c0       	rjmp	.+464    	; 0xa56 <__stack+0x157>
 886:	84 36       	cpi	r24, 0x64	; 100
 888:	11 f0       	breq	.+4      	; 0x88e <vfprintf+0x1d2>
 88a:	89 36       	cpi	r24, 0x69	; 105
 88c:	41 f5       	brne	.+80     	; 0x8de <vfprintf+0x222>
 88e:	f8 01       	movw	r30, r16
 890:	37 fe       	sbrs	r3, 7
 892:	07 c0       	rjmp	.+14     	; 0x8a2 <vfprintf+0x1e6>
 894:	60 81       	ld	r22, Z
 896:	71 81       	ldd	r23, Z+1	; 0x01
 898:	82 81       	ldd	r24, Z+2	; 0x02
 89a:	93 81       	ldd	r25, Z+3	; 0x03
 89c:	0c 5f       	subi	r16, 0xFC	; 252
 89e:	1f 4f       	sbci	r17, 0xFF	; 255
 8a0:	08 c0       	rjmp	.+16     	; 0x8b2 <vfprintf+0x1f6>
 8a2:	60 81       	ld	r22, Z
 8a4:	71 81       	ldd	r23, Z+1	; 0x01
 8a6:	07 2e       	mov	r0, r23
 8a8:	00 0c       	add	r0, r0
 8aa:	88 0b       	sbc	r24, r24
 8ac:	99 0b       	sbc	r25, r25
 8ae:	0e 5f       	subi	r16, 0xFE	; 254
 8b0:	1f 4f       	sbci	r17, 0xFF	; 255
 8b2:	f3 2d       	mov	r31, r3
 8b4:	ff 76       	andi	r31, 0x6F	; 111
 8b6:	3f 2e       	mov	r3, r31
 8b8:	97 ff       	sbrs	r25, 7
 8ba:	09 c0       	rjmp	.+18     	; 0x8ce <vfprintf+0x212>
 8bc:	90 95       	com	r25
 8be:	80 95       	com	r24
 8c0:	70 95       	com	r23
 8c2:	61 95       	neg	r22
 8c4:	7f 4f       	sbci	r23, 0xFF	; 255
 8c6:	8f 4f       	sbci	r24, 0xFF	; 255
 8c8:	9f 4f       	sbci	r25, 0xFF	; 255
 8ca:	f0 68       	ori	r31, 0x80	; 128
 8cc:	3f 2e       	mov	r3, r31
 8ce:	2a e0       	ldi	r18, 0x0A	; 10
 8d0:	30 e0       	ldi	r19, 0x00	; 0
 8d2:	a3 01       	movw	r20, r6
 8d4:	0e 94 91 05 	call	0xb22	; 0xb22 <__ultoa_invert>
 8d8:	88 2e       	mov	r8, r24
 8da:	86 18       	sub	r8, r6
 8dc:	45 c0       	rjmp	.+138    	; 0x968 <__stack+0x69>
 8de:	85 37       	cpi	r24, 0x75	; 117
 8e0:	31 f4       	brne	.+12     	; 0x8ee <vfprintf+0x232>
 8e2:	23 2d       	mov	r18, r3
 8e4:	2f 7e       	andi	r18, 0xEF	; 239
 8e6:	b2 2e       	mov	r11, r18
 8e8:	2a e0       	ldi	r18, 0x0A	; 10
 8ea:	30 e0       	ldi	r19, 0x00	; 0
 8ec:	25 c0       	rjmp	.+74     	; 0x938 <__stack+0x39>
 8ee:	93 2d       	mov	r25, r3
 8f0:	99 7f       	andi	r25, 0xF9	; 249
 8f2:	b9 2e       	mov	r11, r25
 8f4:	8f 36       	cpi	r24, 0x6F	; 111
 8f6:	c1 f0       	breq	.+48     	; 0x928 <__stack+0x29>
 8f8:	18 f4       	brcc	.+6      	; 0x900 <__stack+0x1>
 8fa:	88 35       	cpi	r24, 0x58	; 88
 8fc:	79 f0       	breq	.+30     	; 0x91c <__stack+0x1d>
 8fe:	b5 c0       	rjmp	.+362    	; 0xa6a <__stack+0x16b>
 900:	80 37       	cpi	r24, 0x70	; 112
 902:	19 f0       	breq	.+6      	; 0x90a <__stack+0xb>
 904:	88 37       	cpi	r24, 0x78	; 120
 906:	21 f0       	breq	.+8      	; 0x910 <__stack+0x11>
 908:	b0 c0       	rjmp	.+352    	; 0xa6a <__stack+0x16b>
 90a:	e9 2f       	mov	r30, r25
 90c:	e0 61       	ori	r30, 0x10	; 16
 90e:	be 2e       	mov	r11, r30
 910:	b4 fe       	sbrs	r11, 4
 912:	0d c0       	rjmp	.+26     	; 0x92e <__stack+0x2f>
 914:	fb 2d       	mov	r31, r11
 916:	f4 60       	ori	r31, 0x04	; 4
 918:	bf 2e       	mov	r11, r31
 91a:	09 c0       	rjmp	.+18     	; 0x92e <__stack+0x2f>
 91c:	34 fe       	sbrs	r3, 4
 91e:	0a c0       	rjmp	.+20     	; 0x934 <__stack+0x35>
 920:	29 2f       	mov	r18, r25
 922:	26 60       	ori	r18, 0x06	; 6
 924:	b2 2e       	mov	r11, r18
 926:	06 c0       	rjmp	.+12     	; 0x934 <__stack+0x35>
 928:	28 e0       	ldi	r18, 0x08	; 8
 92a:	30 e0       	ldi	r19, 0x00	; 0
 92c:	05 c0       	rjmp	.+10     	; 0x938 <__stack+0x39>
 92e:	20 e1       	ldi	r18, 0x10	; 16
 930:	30 e0       	ldi	r19, 0x00	; 0
 932:	02 c0       	rjmp	.+4      	; 0x938 <__stack+0x39>
 934:	20 e1       	ldi	r18, 0x10	; 16
 936:	32 e0       	ldi	r19, 0x02	; 2
 938:	f8 01       	movw	r30, r16
 93a:	b7 fe       	sbrs	r11, 7
 93c:	07 c0       	rjmp	.+14     	; 0x94c <__stack+0x4d>
 93e:	60 81       	ld	r22, Z
 940:	71 81       	ldd	r23, Z+1	; 0x01
 942:	82 81       	ldd	r24, Z+2	; 0x02
 944:	93 81       	ldd	r25, Z+3	; 0x03
 946:	0c 5f       	subi	r16, 0xFC	; 252
 948:	1f 4f       	sbci	r17, 0xFF	; 255
 94a:	06 c0       	rjmp	.+12     	; 0x958 <__stack+0x59>
 94c:	60 81       	ld	r22, Z
 94e:	71 81       	ldd	r23, Z+1	; 0x01
 950:	80 e0       	ldi	r24, 0x00	; 0
 952:	90 e0       	ldi	r25, 0x00	; 0
 954:	0e 5f       	subi	r16, 0xFE	; 254
 956:	1f 4f       	sbci	r17, 0xFF	; 255
 958:	a3 01       	movw	r20, r6
 95a:	0e 94 91 05 	call	0xb22	; 0xb22 <__ultoa_invert>
 95e:	88 2e       	mov	r8, r24
 960:	86 18       	sub	r8, r6
 962:	fb 2d       	mov	r31, r11
 964:	ff 77       	andi	r31, 0x7F	; 127
 966:	3f 2e       	mov	r3, r31
 968:	36 fe       	sbrs	r3, 6
 96a:	0d c0       	rjmp	.+26     	; 0x986 <__stack+0x87>
 96c:	23 2d       	mov	r18, r3
 96e:	2e 7f       	andi	r18, 0xFE	; 254
 970:	a2 2e       	mov	r10, r18
 972:	89 14       	cp	r8, r9
 974:	58 f4       	brcc	.+22     	; 0x98c <__stack+0x8d>
 976:	34 fe       	sbrs	r3, 4
 978:	0b c0       	rjmp	.+22     	; 0x990 <__stack+0x91>
 97a:	32 fc       	sbrc	r3, 2
 97c:	09 c0       	rjmp	.+18     	; 0x990 <__stack+0x91>
 97e:	83 2d       	mov	r24, r3
 980:	8e 7e       	andi	r24, 0xEE	; 238
 982:	a8 2e       	mov	r10, r24
 984:	05 c0       	rjmp	.+10     	; 0x990 <__stack+0x91>
 986:	b8 2c       	mov	r11, r8
 988:	a3 2c       	mov	r10, r3
 98a:	03 c0       	rjmp	.+6      	; 0x992 <__stack+0x93>
 98c:	b8 2c       	mov	r11, r8
 98e:	01 c0       	rjmp	.+2      	; 0x992 <__stack+0x93>
 990:	b9 2c       	mov	r11, r9
 992:	a4 fe       	sbrs	r10, 4
 994:	0f c0       	rjmp	.+30     	; 0x9b4 <__stack+0xb5>
 996:	fe 01       	movw	r30, r28
 998:	e8 0d       	add	r30, r8
 99a:	f1 1d       	adc	r31, r1
 99c:	80 81       	ld	r24, Z
 99e:	80 33       	cpi	r24, 0x30	; 48
 9a0:	21 f4       	brne	.+8      	; 0x9aa <__stack+0xab>
 9a2:	9a 2d       	mov	r25, r10
 9a4:	99 7e       	andi	r25, 0xE9	; 233
 9a6:	a9 2e       	mov	r10, r25
 9a8:	09 c0       	rjmp	.+18     	; 0x9bc <__stack+0xbd>
 9aa:	a2 fe       	sbrs	r10, 2
 9ac:	06 c0       	rjmp	.+12     	; 0x9ba <__stack+0xbb>
 9ae:	b3 94       	inc	r11
 9b0:	b3 94       	inc	r11
 9b2:	04 c0       	rjmp	.+8      	; 0x9bc <__stack+0xbd>
 9b4:	8a 2d       	mov	r24, r10
 9b6:	86 78       	andi	r24, 0x86	; 134
 9b8:	09 f0       	breq	.+2      	; 0x9bc <__stack+0xbd>
 9ba:	b3 94       	inc	r11
 9bc:	a3 fc       	sbrc	r10, 3
 9be:	11 c0       	rjmp	.+34     	; 0x9e2 <__stack+0xe3>
 9c0:	a0 fe       	sbrs	r10, 0
 9c2:	06 c0       	rjmp	.+12     	; 0x9d0 <__stack+0xd1>
 9c4:	b2 14       	cp	r11, r2
 9c6:	88 f4       	brcc	.+34     	; 0x9ea <__stack+0xeb>
 9c8:	28 0c       	add	r2, r8
 9ca:	92 2c       	mov	r9, r2
 9cc:	9b 18       	sub	r9, r11
 9ce:	0e c0       	rjmp	.+28     	; 0x9ec <__stack+0xed>
 9d0:	b2 14       	cp	r11, r2
 9d2:	60 f4       	brcc	.+24     	; 0x9ec <__stack+0xed>
 9d4:	b6 01       	movw	r22, r12
 9d6:	80 e2       	ldi	r24, 0x20	; 32
 9d8:	90 e0       	ldi	r25, 0x00	; 0
 9da:	0e 94 55 05 	call	0xaaa	; 0xaaa <fputc>
 9de:	b3 94       	inc	r11
 9e0:	f7 cf       	rjmp	.-18     	; 0x9d0 <__stack+0xd1>
 9e2:	b2 14       	cp	r11, r2
 9e4:	18 f4       	brcc	.+6      	; 0x9ec <__stack+0xed>
 9e6:	2b 18       	sub	r2, r11
 9e8:	02 c0       	rjmp	.+4      	; 0x9ee <__stack+0xef>
 9ea:	98 2c       	mov	r9, r8
 9ec:	21 2c       	mov	r2, r1
 9ee:	a4 fe       	sbrs	r10, 4
 9f0:	10 c0       	rjmp	.+32     	; 0xa12 <__stack+0x113>
 9f2:	b6 01       	movw	r22, r12
 9f4:	80 e3       	ldi	r24, 0x30	; 48
 9f6:	90 e0       	ldi	r25, 0x00	; 0
 9f8:	0e 94 55 05 	call	0xaaa	; 0xaaa <fputc>
 9fc:	a2 fe       	sbrs	r10, 2
 9fe:	17 c0       	rjmp	.+46     	; 0xa2e <__stack+0x12f>
 a00:	a1 fc       	sbrc	r10, 1
 a02:	03 c0       	rjmp	.+6      	; 0xa0a <__stack+0x10b>
 a04:	88 e7       	ldi	r24, 0x78	; 120
 a06:	90 e0       	ldi	r25, 0x00	; 0
 a08:	02 c0       	rjmp	.+4      	; 0xa0e <__stack+0x10f>
 a0a:	88 e5       	ldi	r24, 0x58	; 88
 a0c:	90 e0       	ldi	r25, 0x00	; 0
 a0e:	b6 01       	movw	r22, r12
 a10:	0c c0       	rjmp	.+24     	; 0xa2a <__stack+0x12b>
 a12:	8a 2d       	mov	r24, r10
 a14:	86 78       	andi	r24, 0x86	; 134
 a16:	59 f0       	breq	.+22     	; 0xa2e <__stack+0x12f>
 a18:	a1 fe       	sbrs	r10, 1
 a1a:	02 c0       	rjmp	.+4      	; 0xa20 <__stack+0x121>
 a1c:	8b e2       	ldi	r24, 0x2B	; 43
 a1e:	01 c0       	rjmp	.+2      	; 0xa22 <__stack+0x123>
 a20:	80 e2       	ldi	r24, 0x20	; 32
 a22:	a7 fc       	sbrc	r10, 7
 a24:	8d e2       	ldi	r24, 0x2D	; 45
 a26:	b6 01       	movw	r22, r12
 a28:	90 e0       	ldi	r25, 0x00	; 0
 a2a:	0e 94 55 05 	call	0xaaa	; 0xaaa <fputc>
 a2e:	89 14       	cp	r8, r9
 a30:	38 f4       	brcc	.+14     	; 0xa40 <__stack+0x141>
 a32:	b6 01       	movw	r22, r12
 a34:	80 e3       	ldi	r24, 0x30	; 48
 a36:	90 e0       	ldi	r25, 0x00	; 0
 a38:	0e 94 55 05 	call	0xaaa	; 0xaaa <fputc>
 a3c:	9a 94       	dec	r9
 a3e:	f7 cf       	rjmp	.-18     	; 0xa2e <__stack+0x12f>
 a40:	8a 94       	dec	r8
 a42:	f3 01       	movw	r30, r6
 a44:	e8 0d       	add	r30, r8
 a46:	f1 1d       	adc	r31, r1
 a48:	80 81       	ld	r24, Z
 a4a:	b6 01       	movw	r22, r12
 a4c:	90 e0       	ldi	r25, 0x00	; 0
 a4e:	0e 94 55 05 	call	0xaaa	; 0xaaa <fputc>
 a52:	81 10       	cpse	r8, r1
 a54:	f5 cf       	rjmp	.-22     	; 0xa40 <__stack+0x141>
 a56:	22 20       	and	r2, r2
 a58:	09 f4       	brne	.+2      	; 0xa5c <__stack+0x15d>
 a5a:	42 ce       	rjmp	.-892    	; 0x6e0 <vfprintf+0x24>
 a5c:	b6 01       	movw	r22, r12
 a5e:	80 e2       	ldi	r24, 0x20	; 32
 a60:	90 e0       	ldi	r25, 0x00	; 0
 a62:	0e 94 55 05 	call	0xaaa	; 0xaaa <fputc>
 a66:	2a 94       	dec	r2
 a68:	f6 cf       	rjmp	.-20     	; 0xa56 <__stack+0x157>
 a6a:	f6 01       	movw	r30, r12
 a6c:	86 81       	ldd	r24, Z+6	; 0x06
 a6e:	97 81       	ldd	r25, Z+7	; 0x07
 a70:	02 c0       	rjmp	.+4      	; 0xa76 <__stack+0x177>
 a72:	8f ef       	ldi	r24, 0xFF	; 255
 a74:	9f ef       	ldi	r25, 0xFF	; 255
 a76:	2b 96       	adiw	r28, 0x0b	; 11
 a78:	e2 e1       	ldi	r30, 0x12	; 18
 a7a:	0c 94 0b 06 	jmp	0xc16	; 0xc16 <__epilogue_restores__>

00000a7e <strnlen_P>:
 a7e:	fc 01       	movw	r30, r24
 a80:	05 90       	lpm	r0, Z+
 a82:	61 50       	subi	r22, 0x01	; 1
 a84:	70 40       	sbci	r23, 0x00	; 0
 a86:	01 10       	cpse	r0, r1
 a88:	d8 f7       	brcc	.-10     	; 0xa80 <strnlen_P+0x2>
 a8a:	80 95       	com	r24
 a8c:	90 95       	com	r25
 a8e:	8e 0f       	add	r24, r30
 a90:	9f 1f       	adc	r25, r31
 a92:	08 95       	ret

00000a94 <strnlen>:
 a94:	fc 01       	movw	r30, r24
 a96:	61 50       	subi	r22, 0x01	; 1
 a98:	70 40       	sbci	r23, 0x00	; 0
 a9a:	01 90       	ld	r0, Z+
 a9c:	01 10       	cpse	r0, r1
 a9e:	d8 f7       	brcc	.-10     	; 0xa96 <strnlen+0x2>
 aa0:	80 95       	com	r24
 aa2:	90 95       	com	r25
 aa4:	8e 0f       	add	r24, r30
 aa6:	9f 1f       	adc	r25, r31
 aa8:	08 95       	ret

00000aaa <fputc>:
 aaa:	0f 93       	push	r16
 aac:	1f 93       	push	r17
 aae:	cf 93       	push	r28
 ab0:	df 93       	push	r29
 ab2:	fb 01       	movw	r30, r22
 ab4:	23 81       	ldd	r18, Z+3	; 0x03
 ab6:	21 fd       	sbrc	r18, 1
 ab8:	03 c0       	rjmp	.+6      	; 0xac0 <fputc+0x16>
 aba:	8f ef       	ldi	r24, 0xFF	; 255
 abc:	9f ef       	ldi	r25, 0xFF	; 255
 abe:	2c c0       	rjmp	.+88     	; 0xb18 <fputc+0x6e>
 ac0:	22 ff       	sbrs	r18, 2
 ac2:	16 c0       	rjmp	.+44     	; 0xaf0 <fputc+0x46>
 ac4:	46 81       	ldd	r20, Z+6	; 0x06
 ac6:	57 81       	ldd	r21, Z+7	; 0x07
 ac8:	24 81       	ldd	r18, Z+4	; 0x04
 aca:	35 81       	ldd	r19, Z+5	; 0x05
 acc:	42 17       	cp	r20, r18
 ace:	53 07       	cpc	r21, r19
 ad0:	44 f4       	brge	.+16     	; 0xae2 <fputc+0x38>
 ad2:	a0 81       	ld	r26, Z
 ad4:	b1 81       	ldd	r27, Z+1	; 0x01
 ad6:	9d 01       	movw	r18, r26
 ad8:	2f 5f       	subi	r18, 0xFF	; 255
 ada:	3f 4f       	sbci	r19, 0xFF	; 255
 adc:	31 83       	std	Z+1, r19	; 0x01
 ade:	20 83       	st	Z, r18
 ae0:	8c 93       	st	X, r24
 ae2:	26 81       	ldd	r18, Z+6	; 0x06
 ae4:	37 81       	ldd	r19, Z+7	; 0x07
 ae6:	2f 5f       	subi	r18, 0xFF	; 255
 ae8:	3f 4f       	sbci	r19, 0xFF	; 255
 aea:	37 83       	std	Z+7, r19	; 0x07
 aec:	26 83       	std	Z+6, r18	; 0x06
 aee:	14 c0       	rjmp	.+40     	; 0xb18 <fputc+0x6e>
 af0:	8b 01       	movw	r16, r22
 af2:	ec 01       	movw	r28, r24
 af4:	fb 01       	movw	r30, r22
 af6:	00 84       	ldd	r0, Z+8	; 0x08
 af8:	f1 85       	ldd	r31, Z+9	; 0x09
 afa:	e0 2d       	mov	r30, r0
 afc:	09 95       	icall
 afe:	89 2b       	or	r24, r25
 b00:	e1 f6       	brne	.-72     	; 0xaba <fputc+0x10>
 b02:	d8 01       	movw	r26, r16
 b04:	16 96       	adiw	r26, 0x06	; 6
 b06:	8d 91       	ld	r24, X+
 b08:	9c 91       	ld	r25, X
 b0a:	17 97       	sbiw	r26, 0x07	; 7
 b0c:	01 96       	adiw	r24, 0x01	; 1
 b0e:	17 96       	adiw	r26, 0x07	; 7
 b10:	9c 93       	st	X, r25
 b12:	8e 93       	st	-X, r24
 b14:	16 97       	sbiw	r26, 0x06	; 6
 b16:	ce 01       	movw	r24, r28
 b18:	df 91       	pop	r29
 b1a:	cf 91       	pop	r28
 b1c:	1f 91       	pop	r17
 b1e:	0f 91       	pop	r16
 b20:	08 95       	ret

00000b22 <__ultoa_invert>:
 b22:	fa 01       	movw	r30, r20
 b24:	aa 27       	eor	r26, r26
 b26:	28 30       	cpi	r18, 0x08	; 8
 b28:	51 f1       	breq	.+84     	; 0xb7e <__ultoa_invert+0x5c>
 b2a:	20 31       	cpi	r18, 0x10	; 16
 b2c:	81 f1       	breq	.+96     	; 0xb8e <__ultoa_invert+0x6c>
 b2e:	e8 94       	clt
 b30:	6f 93       	push	r22
 b32:	6e 7f       	andi	r22, 0xFE	; 254
 b34:	6e 5f       	subi	r22, 0xFE	; 254
 b36:	7f 4f       	sbci	r23, 0xFF	; 255
 b38:	8f 4f       	sbci	r24, 0xFF	; 255
 b3a:	9f 4f       	sbci	r25, 0xFF	; 255
 b3c:	af 4f       	sbci	r26, 0xFF	; 255
 b3e:	b1 e0       	ldi	r27, 0x01	; 1
 b40:	3e d0       	rcall	.+124    	; 0xbbe <__ultoa_invert+0x9c>
 b42:	b4 e0       	ldi	r27, 0x04	; 4
 b44:	3c d0       	rcall	.+120    	; 0xbbe <__ultoa_invert+0x9c>
 b46:	67 0f       	add	r22, r23
 b48:	78 1f       	adc	r23, r24
 b4a:	89 1f       	adc	r24, r25
 b4c:	9a 1f       	adc	r25, r26
 b4e:	a1 1d       	adc	r26, r1
 b50:	68 0f       	add	r22, r24
 b52:	79 1f       	adc	r23, r25
 b54:	8a 1f       	adc	r24, r26
 b56:	91 1d       	adc	r25, r1
 b58:	a1 1d       	adc	r26, r1
 b5a:	6a 0f       	add	r22, r26
 b5c:	71 1d       	adc	r23, r1
 b5e:	81 1d       	adc	r24, r1
 b60:	91 1d       	adc	r25, r1
 b62:	a1 1d       	adc	r26, r1
 b64:	20 d0       	rcall	.+64     	; 0xba6 <__ultoa_invert+0x84>
 b66:	09 f4       	brne	.+2      	; 0xb6a <__ultoa_invert+0x48>
 b68:	68 94       	set
 b6a:	3f 91       	pop	r19
 b6c:	2a e0       	ldi	r18, 0x0A	; 10
 b6e:	26 9f       	mul	r18, r22
 b70:	11 24       	eor	r1, r1
 b72:	30 19       	sub	r19, r0
 b74:	30 5d       	subi	r19, 0xD0	; 208
 b76:	31 93       	st	Z+, r19
 b78:	de f6       	brtc	.-74     	; 0xb30 <__ultoa_invert+0xe>
 b7a:	cf 01       	movw	r24, r30
 b7c:	08 95       	ret
 b7e:	46 2f       	mov	r20, r22
 b80:	47 70       	andi	r20, 0x07	; 7
 b82:	40 5d       	subi	r20, 0xD0	; 208
 b84:	41 93       	st	Z+, r20
 b86:	b3 e0       	ldi	r27, 0x03	; 3
 b88:	0f d0       	rcall	.+30     	; 0xba8 <__ultoa_invert+0x86>
 b8a:	c9 f7       	brne	.-14     	; 0xb7e <__ultoa_invert+0x5c>
 b8c:	f6 cf       	rjmp	.-20     	; 0xb7a <__ultoa_invert+0x58>
 b8e:	46 2f       	mov	r20, r22
 b90:	4f 70       	andi	r20, 0x0F	; 15
 b92:	40 5d       	subi	r20, 0xD0	; 208
 b94:	4a 33       	cpi	r20, 0x3A	; 58
 b96:	18 f0       	brcs	.+6      	; 0xb9e <__ultoa_invert+0x7c>
 b98:	49 5d       	subi	r20, 0xD9	; 217
 b9a:	31 fd       	sbrc	r19, 1
 b9c:	40 52       	subi	r20, 0x20	; 32
 b9e:	41 93       	st	Z+, r20
 ba0:	02 d0       	rcall	.+4      	; 0xba6 <__ultoa_invert+0x84>
 ba2:	a9 f7       	brne	.-22     	; 0xb8e <__ultoa_invert+0x6c>
 ba4:	ea cf       	rjmp	.-44     	; 0xb7a <__ultoa_invert+0x58>
 ba6:	b4 e0       	ldi	r27, 0x04	; 4
 ba8:	a6 95       	lsr	r26
 baa:	97 95       	ror	r25
 bac:	87 95       	ror	r24
 bae:	77 95       	ror	r23
 bb0:	67 95       	ror	r22
 bb2:	ba 95       	dec	r27
 bb4:	c9 f7       	brne	.-14     	; 0xba8 <__ultoa_invert+0x86>
 bb6:	00 97       	sbiw	r24, 0x00	; 0
 bb8:	61 05       	cpc	r22, r1
 bba:	71 05       	cpc	r23, r1
 bbc:	08 95       	ret
 bbe:	9b 01       	movw	r18, r22
 bc0:	ac 01       	movw	r20, r24
 bc2:	0a 2e       	mov	r0, r26
 bc4:	06 94       	lsr	r0
 bc6:	57 95       	ror	r21
 bc8:	47 95       	ror	r20
 bca:	37 95       	ror	r19
 bcc:	27 95       	ror	r18
 bce:	ba 95       	dec	r27
 bd0:	c9 f7       	brne	.-14     	; 0xbc4 <__ultoa_invert+0xa2>
 bd2:	62 0f       	add	r22, r18
 bd4:	73 1f       	adc	r23, r19
 bd6:	84 1f       	adc	r24, r20
 bd8:	95 1f       	adc	r25, r21
 bda:	a0 1d       	adc	r26, r0
 bdc:	08 95       	ret

00000bde <__prologue_saves__>:
 bde:	2f 92       	push	r2
 be0:	3f 92       	push	r3
 be2:	4f 92       	push	r4
 be4:	5f 92       	push	r5
 be6:	6f 92       	push	r6
 be8:	7f 92       	push	r7
 bea:	8f 92       	push	r8
 bec:	9f 92       	push	r9
 bee:	af 92       	push	r10
 bf0:	bf 92       	push	r11
 bf2:	cf 92       	push	r12
 bf4:	df 92       	push	r13
 bf6:	ef 92       	push	r14
 bf8:	ff 92       	push	r15
 bfa:	0f 93       	push	r16
 bfc:	1f 93       	push	r17
 bfe:	cf 93       	push	r28
 c00:	df 93       	push	r29
 c02:	cd b7       	in	r28, 0x3d	; 61
 c04:	de b7       	in	r29, 0x3e	; 62
 c06:	ca 1b       	sub	r28, r26
 c08:	db 0b       	sbc	r29, r27
 c0a:	0f b6       	in	r0, 0x3f	; 63
 c0c:	f8 94       	cli
 c0e:	de bf       	out	0x3e, r29	; 62
 c10:	0f be       	out	0x3f, r0	; 63
 c12:	cd bf       	out	0x3d, r28	; 61
 c14:	09 94       	ijmp

00000c16 <__epilogue_restores__>:
 c16:	2a 88       	ldd	r2, Y+18	; 0x12
 c18:	39 88       	ldd	r3, Y+17	; 0x11
 c1a:	48 88       	ldd	r4, Y+16	; 0x10
 c1c:	5f 84       	ldd	r5, Y+15	; 0x0f
 c1e:	6e 84       	ldd	r6, Y+14	; 0x0e
 c20:	7d 84       	ldd	r7, Y+13	; 0x0d
 c22:	8c 84       	ldd	r8, Y+12	; 0x0c
 c24:	9b 84       	ldd	r9, Y+11	; 0x0b
 c26:	aa 84       	ldd	r10, Y+10	; 0x0a
 c28:	b9 84       	ldd	r11, Y+9	; 0x09
 c2a:	c8 84       	ldd	r12, Y+8	; 0x08
 c2c:	df 80       	ldd	r13, Y+7	; 0x07
 c2e:	ee 80       	ldd	r14, Y+6	; 0x06
 c30:	fd 80       	ldd	r15, Y+5	; 0x05
 c32:	0c 81       	ldd	r16, Y+4	; 0x04
 c34:	1b 81       	ldd	r17, Y+3	; 0x03
 c36:	aa 81       	ldd	r26, Y+2	; 0x02
 c38:	b9 81       	ldd	r27, Y+1	; 0x01
 c3a:	ce 0f       	add	r28, r30
 c3c:	d1 1d       	adc	r29, r1
 c3e:	0f b6       	in	r0, 0x3f	; 63
 c40:	f8 94       	cli
 c42:	de bf       	out	0x3e, r29	; 62
 c44:	0f be       	out	0x3f, r0	; 63
 c46:	cd bf       	out	0x3d, r28	; 61
 c48:	ed 01       	movw	r28, r26
 c4a:	08 95       	ret

00000c4c <_exit>:
 c4c:	f8 94       	cli

00000c4e <__stop_program>:
 c4e:	ff cf       	rjmp	.-2      	; 0xc4e <__stop_program>
